
arm.elf:     file format elf32-littlearm

Sections:
Idx Name          Size      VMA       LMA       File off  Algn
  0 .text         00001d38  00400000  00400000  00010000  2**2
                  CONTENTS, ALLOC, LOAD, READONLY, CODE
  1 .relocate     00000434  20000000  00401d38  00020000  2**3
                  CONTENTS, ALLOC, LOAD, DATA
  2 .bss          0000010c  20000434  0040216c  00020434  2**2
                  ALLOC
  3 .stack        00003000  20000540  00402278  00020434  2**0
                  ALLOC
  4 .ARM.attributes 0000002e  00000000  00000000  00020434  2**0
                  CONTENTS, READONLY
  5 .comment      00000059  00000000  00000000  00020462  2**0
                  CONTENTS, READONLY
  6 .debug_info   0001385e  00000000  00000000  000204bb  2**0
                  CONTENTS, READONLY, DEBUGGING
  7 .debug_abbrev 00002d75  00000000  00000000  00033d19  2**0
                  CONTENTS, READONLY, DEBUGGING
  8 .debug_loc    000058a4  00000000  00000000  00036a8e  2**0
                  CONTENTS, READONLY, DEBUGGING
  9 .debug_aranges 000008f0  00000000  00000000  0003c332  2**0
                  CONTENTS, READONLY, DEBUGGING
 10 .debug_ranges 000009c8  00000000  00000000  0003cc22  2**0
                  CONTENTS, READONLY, DEBUGGING
 11 .debug_macro  0001a409  00000000  00000000  0003d5ea  2**0
                  CONTENTS, READONLY, DEBUGGING
 12 .debug_line   0000c146  00000000  00000000  000579f3  2**0
                  CONTENTS, READONLY, DEBUGGING
 13 .debug_str    0006a5e1  00000000  00000000  00063b39  2**0
                  CONTENTS, READONLY, DEBUGGING
 14 .debug_frame  00001564  00000000  00000000  000ce11c  2**2
                  CONTENTS, READONLY, DEBUGGING

Disassembly of section .text:

00400000 <exception_table>:
  400000:	40 35 00 20 7d 12 40 00 79 12 40 00 79 12 40 00     @5. }.@.y.@.y.@.
  400010:	79 12 40 00 79 12 40 00 79 12 40 00 00 00 00 00     y.@.y.@.y.@.....
	...
  40002c:	79 12 40 00 79 12 40 00 00 00 00 00 79 12 40 00     y.@.y.@.....y.@.
  40003c:	79 12 40 00 79 12 40 00 79 12 40 00 79 12 40 00     y.@.y.@.y.@.y.@.
  40004c:	79 12 40 00 79 12 40 00 79 12 40 00 79 12 40 00     y.@.y.@.y.@.y.@.
  40005c:	79 12 40 00 79 12 40 00 a9 15 40 00 bd 15 40 00     y.@.y.@...@...@.
  40006c:	d1 15 40 00 e5 15 40 00 f9 15 40 00 79 12 40 00     ..@...@...@.y.@.
  40007c:	79 12 40 00 79 12 40 00 79 12 40 00 79 12 40 00     y.@.y.@.y.@.y.@.
  40008c:	79 12 40 00 79 12 40 00 79 12 40 00 79 12 40 00     y.@.y.@.y.@.y.@.
  40009c:	79 12 40 00 79 12 40 00 79 12 40 00 79 12 40 00     y.@.y.@.y.@.y.@.
  4000ac:	79 12 40 00 79 12 40 00 79 12 40 00 79 12 40 00     y.@.y.@.y.@.y.@.
  4000bc:	79 12 40 00 79 12 40 00 79 12 40 00 79 12 40 00     y.@.y.@.y.@.y.@.
  4000cc:	79 12 40 00 79 12 40 00 79 12 40 00 79 12 40 00     y.@.y.@.y.@.y.@.
  4000dc:	79 12 40 00 79 12 40 00 79 12 40 00 79 12 40 00     y.@.y.@.y.@.y.@.
  4000ec:	79 12 40 00 79 12 40 00 79 12 40 00                 y.@.y.@.y.@.

004000f8 <__do_global_dtors_aux>:
  4000f8:	b510      	push	{r4, lr}
  4000fa:	4c05      	ldr	r4, [pc, #20]	; (400110 <__do_global_dtors_aux+0x18>)
  4000fc:	7823      	ldrb	r3, [r4, #0]
  4000fe:	b933      	cbnz	r3, 40010e <__do_global_dtors_aux+0x16>
  400100:	4b04      	ldr	r3, [pc, #16]	; (400114 <__do_global_dtors_aux+0x1c>)
  400102:	b113      	cbz	r3, 40010a <__do_global_dtors_aux+0x12>
  400104:	4804      	ldr	r0, [pc, #16]	; (400118 <__do_global_dtors_aux+0x20>)
  400106:	f3af 8000 	nop.w
  40010a:	2301      	movs	r3, #1
  40010c:	7023      	strb	r3, [r4, #0]
  40010e:	bd10      	pop	{r4, pc}
  400110:	20000434 	.word	0x20000434
  400114:	00000000 	.word	0x00000000
  400118:	00401d38 	.word	0x00401d38

0040011c <frame_dummy>:
  40011c:	4b0c      	ldr	r3, [pc, #48]	; (400150 <frame_dummy+0x34>)
  40011e:	b143      	cbz	r3, 400132 <frame_dummy+0x16>
  400120:	480c      	ldr	r0, [pc, #48]	; (400154 <frame_dummy+0x38>)
  400122:	490d      	ldr	r1, [pc, #52]	; (400158 <frame_dummy+0x3c>)
  400124:	b510      	push	{r4, lr}
  400126:	f3af 8000 	nop.w
  40012a:	480c      	ldr	r0, [pc, #48]	; (40015c <frame_dummy+0x40>)
  40012c:	6803      	ldr	r3, [r0, #0]
  40012e:	b923      	cbnz	r3, 40013a <frame_dummy+0x1e>
  400130:	bd10      	pop	{r4, pc}
  400132:	480a      	ldr	r0, [pc, #40]	; (40015c <frame_dummy+0x40>)
  400134:	6803      	ldr	r3, [r0, #0]
  400136:	b933      	cbnz	r3, 400146 <frame_dummy+0x2a>
  400138:	4770      	bx	lr
  40013a:	4b09      	ldr	r3, [pc, #36]	; (400160 <frame_dummy+0x44>)
  40013c:	2b00      	cmp	r3, #0
  40013e:	d0f7      	beq.n	400130 <frame_dummy+0x14>
  400140:	e8bd 4010 	ldmia.w	sp!, {r4, lr}
  400144:	4718      	bx	r3
  400146:	4b06      	ldr	r3, [pc, #24]	; (400160 <frame_dummy+0x44>)
  400148:	2b00      	cmp	r3, #0
  40014a:	d0f5      	beq.n	400138 <frame_dummy+0x1c>
  40014c:	4718      	bx	r3
  40014e:	bf00      	nop
  400150:	00000000 	.word	0x00000000
  400154:	00401d38 	.word	0x00401d38
  400158:	20000438 	.word	0x20000438
  40015c:	00401d38 	.word	0x00401d38
  400160:	00000000 	.word	0x00000000

00400164 <bsp_hw_init>:
static void m_bsp_gpio_init(void);
static void m_bsp_sdcard_init(void);

/* Function definitions ----------------------------------------------- */
void bsp_hw_init(void)
{
  400164:	b570      	push	{r4, r5, r6, lr}
 *
 * \param ul_id Id (number) of the peripheral clock.
 */
static inline void sysclk_enable_peripheral_clock(uint32_t ul_id)
{
	pmc_enable_periph_clk(ul_id);
  400166:	2009      	movs	r0, #9
  400168:	4b0c      	ldr	r3, [pc, #48]	; (40019c <bsp_hw_init+0x38>)
  40016a:	4798      	blx	r3

  // Enable PIOA clock to detect Card Detect (CD) change
  sysclk_enable_peripheral_clock(ID_PIOA);

  // Configure SD card pins as per MCI peripheral (periph C)
  pio_set_peripheral(PIOA, PIO_PERIPH_C, PIO_PA30C_MCDA0 | // MCI Data 0
  40016c:	f04f 427c 	mov.w	r2, #4227858432	; 0xfc000000
  400170:	f04f 51c0 	mov.w	r1, #402653184	; 0x18000000
  400174:	480a      	ldr	r0, [pc, #40]	; (4001a0 <bsp_hw_init+0x3c>)
  400176:	4b0b      	ldr	r3, [pc, #44]	; (4001a4 <bsp_hw_init+0x40>)
  400178:	4798      	blx	r3
                                         PIO_PA27C_MCDA3 | // MCI Data 3
                                         PIO_PA28C_MCCDA | // MCI Command
                                         PIO_PA29C_MCCK);  // MCI Clock

  // Initialize SD MMC stack
  sd_mmc_init();
  40017a:	4b0b      	ldr	r3, [pc, #44]	; (4001a8 <bsp_hw_init+0x44>)
  40017c:	4798      	blx	r3

  //  Wait until SD stack initialized and SD card inserted
  do
  {
    // Check if stack ready
    status = sd_mmc_test_unit_ready(0);
  40017e:	2400      	movs	r4, #0
  400180:	4e0a      	ldr	r6, [pc, #40]	; (4001ac <bsp_hw_init+0x48>)
    if (status == CTRL_FAIL)
    {
      // Wait for a card to be inserted
      while (sd_mmc_check(0) != CTRL_NO_PRESENT)
  400182:	4d0b      	ldr	r5, [pc, #44]	; (4001b0 <bsp_hw_init+0x4c>)
  400184:	e003      	b.n	40018e <bsp_hw_init+0x2a>
  400186:	4620      	mov	r0, r4
  400188:	47a8      	blx	r5
  40018a:	2802      	cmp	r0, #2
  40018c:	d1fb      	bne.n	400186 <bsp_hw_init+0x22>
    status = sd_mmc_test_unit_ready(0);
  40018e:	4620      	mov	r0, r4
  400190:	47b0      	blx	r6
    if (status == CTRL_FAIL)
  400192:	2801      	cmp	r0, #1
  400194:	d0f7      	beq.n	400186 <bsp_hw_init+0x22>
      {
        // Use a timeout here for real projects.
      }
    }
  } while (status != CTRL_GOOD);
  400196:	2800      	cmp	r0, #0
  400198:	d1f9      	bne.n	40018e <bsp_hw_init+0x2a>
}
  40019a:	bd70      	pop	{r4, r5, r6, pc}
  40019c:	004019a9 	.word	0x004019a9
  4001a0:	400e0e00 	.word	0x400e0e00
  4001a4:	00401825 	.word	0x00401825
  4001a8:	0040037d 	.word	0x0040037d
  4001ac:	00400c41 	.word	0x00400c41
  4001b0:	0040039d 	.word	0x0040039d

004001b4 <bsp_can_init>:
can_mb_conf_t m_can1_mailbox;

/* Private function prototypes ---------------------------------------- */
/* Function definitions ----------------------------------------------- */
void bsp_can_init(void)
{
  4001b4:	b538      	push	{r3, r4, r5, lr}
  uint32_t ul_sysclk = sysclk_get_cpu_hz();

  pmc_enable_periph_clk(ID_CAN1);
  4001b6:	2026      	movs	r0, #38	; 0x26
  4001b8:	4b13      	ldr	r3, [pc, #76]	; (400208 <bsp_can_init+0x54>)
  4001ba:	4798      	blx	r3

  can_init(CAN1, ul_sysclk, CAN_BPS_1000K);
  4001bc:	4d13      	ldr	r5, [pc, #76]	; (40020c <bsp_can_init+0x58>)
  4001be:	f44f 727a 	mov.w	r2, #1000	; 0x3e8
  4001c2:	4913      	ldr	r1, [pc, #76]	; (400210 <bsp_can_init+0x5c>)
  4001c4:	4628      	mov	r0, r5
  4001c6:	4b13      	ldr	r3, [pc, #76]	; (400214 <bsp_can_init+0x60>)
  4001c8:	4798      	blx	r3
  can_reset_all_mailbox(CAN1);
  4001ca:	4628      	mov	r0, r5
  4001cc:	4b12      	ldr	r3, [pc, #72]	; (400218 <bsp_can_init+0x64>)
  4001ce:	4798      	blx	r3

  m_can1_mailbox.ul_mb_idx   = 0;
  4001d0:	4c12      	ldr	r4, [pc, #72]	; (40021c <bsp_can_init+0x68>)
  4001d2:	2300      	movs	r3, #0
  4001d4:	6023      	str	r3, [r4, #0]
  m_can1_mailbox.uc_obj_type = CAN_MB_TX_MODE;
  4001d6:	2203      	movs	r2, #3
  4001d8:	7122      	strb	r2, [r4, #4]
  m_can1_mailbox.uc_tx_prio  = 15;
  4001da:	220f      	movs	r2, #15
  4001dc:	71e2      	strb	r2, [r4, #7]
  m_can1_mailbox.uc_id_ver   = 0;
  4001de:	7163      	strb	r3, [r4, #5]
  m_can1_mailbox.ul_id_msk   = 0;
  4001e0:	60e3      	str	r3, [r4, #12]
  can_mailbox_init(CAN1, &m_can1_mailbox);
  4001e2:	4621      	mov	r1, r4
  4001e4:	4628      	mov	r0, r5
  4001e6:	4b0e      	ldr	r3, [pc, #56]	; (400220 <bsp_can_init+0x6c>)
  4001e8:	4798      	blx	r3
  
  m_can1_mailbox.ul_id     = CAN_MID_MIDvA(0x07);
  4001ea:	f44f 13e0 	mov.w	r3, #1835008	; 0x1c0000
  4001ee:	6123      	str	r3, [r4, #16]
  m_can1_mailbox.ul_datal  = 0x12345678;
  4001f0:	4b0c      	ldr	r3, [pc, #48]	; (400224 <bsp_can_init+0x70>)
  4001f2:	61a3      	str	r3, [r4, #24]
  m_can1_mailbox.ul_datah  = 0x87654321;
  4001f4:	4b0c      	ldr	r3, [pc, #48]	; (400228 <bsp_can_init+0x74>)
  4001f6:	61e3      	str	r3, [r4, #28]
  m_can1_mailbox.uc_length = 8;
  4001f8:	2308      	movs	r3, #8
  4001fa:	71a3      	strb	r3, [r4, #6]
  can_mailbox_write(CAN1, &m_can1_mailbox);
  4001fc:	4621      	mov	r1, r4
  4001fe:	4628      	mov	r0, r5
  400200:	4b0a      	ldr	r3, [pc, #40]	; (40022c <bsp_can_init+0x78>)
  400202:	4798      	blx	r3
  400204:	bd38      	pop	{r3, r4, r5, pc}
  400206:	bf00      	nop
  400208:	004019a9 	.word	0x004019a9
  40020c:	40014000 	.word	0x40014000
  400210:	05b8d800 	.word	0x05b8d800
  400214:	00401729 	.word	0x00401729
  400218:	00401705 	.word	0x00401705
  40021c:	200004f8 	.word	0x200004f8
  400220:	00401619 	.word	0x00401619
  400224:	12345678 	.word	0x12345678
  400228:	87654321 	.word	0x87654321
  40022c:	0040169b 	.word	0x0040169b

00400230 <bsp_can_send>:
}

void bsp_can_send(void)
{
  400230:	b508      	push	{r3, lr}
  can_global_send_transfer_cmd(CAN1, CAN_TCR_MB0);
  400232:	2101      	movs	r1, #1
  400234:	4801      	ldr	r0, [pc, #4]	; (40023c <bsp_can_send+0xc>)
  400236:	4b02      	ldr	r3, [pc, #8]	; (400240 <bsp_can_send+0x10>)
  400238:	4798      	blx	r3
  40023a:	bd08      	pop	{r3, pc}
  40023c:	40014000 	.word	0x40014000
  400240:	0040160d 	.word	0x0040160d

00400244 <sys_init>:
/* Private function prototypes ---------------------------------------- */
static void m_sys_sdcard_test(void);

/* Function definitions ----------------------------------------------- */
void sys_init(void)
{
  400244:	b508      	push	{r3, lr}
  sysclk_init();  // Initialize System Clock
  400246:	4b04      	ldr	r3, [pc, #16]	; (400258 <sys_init+0x14>)
  400248:	4798      	blx	r3
  board_init();   // Board init
  40024a:	4b04      	ldr	r3, [pc, #16]	; (40025c <sys_init+0x18>)
  40024c:	4798      	blx	r3
  bsp_hw_init();  // Hardware init
  40024e:	4b04      	ldr	r3, [pc, #16]	; (400260 <sys_init+0x1c>)
  400250:	4798      	blx	r3
  bsp_can_init(); // Can bus init
  400252:	4b04      	ldr	r3, [pc, #16]	; (400264 <sys_init+0x20>)
  400254:	4798      	blx	r3
  400256:	bd08      	pop	{r3, pc}
  400258:	004014d9 	.word	0x004014d9
  40025c:	00400c91 	.word	0x00400c91
  400260:	00400165 	.word	0x00400165
  400264:	004001b5 	.word	0x004001b5

00400268 <sys_run>:
}

void sys_run(void)
{
  400268:	b508      	push	{r3, lr}
  bsp_can_send();
  40026a:	4b01      	ldr	r3, [pc, #4]	; (400270 <sys_run+0x8>)
  40026c:	4798      	blx	r3
  40026e:	bd08      	pop	{r3, pc}
  400270:	00400231 	.word	0x00400231

00400274 <sd_mmc_configure_slot>:

/**
 * \brief Configures the driver with the selected card configuration
 */
static void sd_mmc_configure_slot(void)
{
  400274:	b510      	push	{r4, lr}
	driver_select_device(sd_mmc_slot_sel, sd_mmc_card->clock,
  400276:	4b06      	ldr	r3, [pc, #24]	; (400290 <sd_mmc_configure_slot+0x1c>)
  400278:	6819      	ldr	r1, [r3, #0]
  40027a:	7f8b      	ldrb	r3, [r1, #30]
  40027c:	3300      	adds	r3, #0
  40027e:	bf18      	it	ne
  400280:	2301      	movne	r3, #1
  400282:	7b4a      	ldrb	r2, [r1, #13]
  400284:	6809      	ldr	r1, [r1, #0]
  400286:	4803      	ldr	r0, [pc, #12]	; (400294 <sd_mmc_configure_slot+0x20>)
  400288:	7800      	ldrb	r0, [r0, #0]
  40028a:	4c03      	ldr	r4, [pc, #12]	; (400298 <sd_mmc_configure_slot+0x24>)
  40028c:	47a0      	blx	r4
  40028e:	bd10      	pop	{r4, pc}
  400290:	20000450 	.word	0x20000450
  400294:	20000474 	.word	0x20000474
  400298:	00400f29 	.word	0x00400f29

0040029c <sd_mmc_select_slot>:
	if (slot >= SD_MMC_MEM_CNT) {
  40029c:	b108      	cbz	r0, 4002a2 <sd_mmc_select_slot+0x6>
		return SD_MMC_ERR_SLOT;
  40029e:	2004      	movs	r0, #4
  4002a0:	4770      	bx	lr
{
  4002a2:	b510      	push	{r4, lr}
	if ((sd_mmc_cards[slot].state == SD_MMC_CARD_STATE_NO_CARD)
  4002a4:	4b0e      	ldr	r3, [pc, #56]	; (4002e0 <sd_mmc_select_slot+0x44>)
			|| (sd_mmc_cards[slot].state == SD_MMC_CARD_STATE_UNUSABLE)) {
  4002a6:	7a9b      	ldrb	r3, [r3, #10]
  4002a8:	3b03      	subs	r3, #3
	if ((sd_mmc_cards[slot].state == SD_MMC_CARD_STATE_NO_CARD)
  4002aa:	b2db      	uxtb	r3, r3
  4002ac:	2b01      	cmp	r3, #1
  4002ae:	d90d      	bls.n	4002cc <sd_mmc_select_slot+0x30>
	sd_mmc_slot_sel = slot;
  4002b0:	2200      	movs	r2, #0
  4002b2:	4b0c      	ldr	r3, [pc, #48]	; (4002e4 <sd_mmc_select_slot+0x48>)
  4002b4:	701a      	strb	r2, [r3, #0]
	sd_mmc_card = &sd_mmc_cards[slot];
  4002b6:	4c0a      	ldr	r4, [pc, #40]	; (4002e0 <sd_mmc_select_slot+0x44>)
  4002b8:	4b0b      	ldr	r3, [pc, #44]	; (4002e8 <sd_mmc_select_slot+0x4c>)
  4002ba:	601c      	str	r4, [r3, #0]
	sd_mmc_configure_slot();
  4002bc:	4b0b      	ldr	r3, [pc, #44]	; (4002ec <sd_mmc_select_slot+0x50>)
  4002be:	4798      	blx	r3
			SD_MMC_INIT_ONGOING : SD_MMC_OK;
  4002c0:	7aa0      	ldrb	r0, [r4, #10]
  4002c2:	2802      	cmp	r0, #2
  4002c4:	bf14      	ite	ne
  4002c6:	2000      	movne	r0, #0
  4002c8:	2001      	moveq	r0, #1
  4002ca:	bd10      	pop	{r4, pc}
		sd_mmc_cards[slot].state = SD_MMC_CARD_STATE_INIT;
  4002cc:	4b04      	ldr	r3, [pc, #16]	; (4002e0 <sd_mmc_select_slot+0x44>)
  4002ce:	2202      	movs	r2, #2
  4002d0:	729a      	strb	r2, [r3, #10]
		sd_mmc_cards[slot].clock = SDMMC_CLOCK_INIT;
  4002d2:	4a07      	ldr	r2, [pc, #28]	; (4002f0 <sd_mmc_select_slot+0x54>)
  4002d4:	601a      	str	r2, [r3, #0]
		sd_mmc_cards[slot].bus_width = 1;
  4002d6:	2201      	movs	r2, #1
  4002d8:	735a      	strb	r2, [r3, #13]
		sd_mmc_cards[slot].high_speed = 0;
  4002da:	2200      	movs	r2, #0
  4002dc:	779a      	strb	r2, [r3, #30]
  4002de:	e7e7      	b.n	4002b0 <sd_mmc_select_slot+0x14>
  4002e0:	20000454 	.word	0x20000454
  4002e4:	20000474 	.word	0x20000474
  4002e8:	20000450 	.word	0x20000450
  4002ec:	00400275 	.word	0x00400275
  4002f0:	00061a80 	.word	0x00061a80

004002f4 <sdio_cmd52>:
{
  4002f4:	b538      	push	{r3, r4, r5, lr}
  4002f6:	9c04      	ldr	r4, [sp, #16]
		| ((uint32_t)reg_addr << SDIO_CMD52_REG_ADRR))) {
  4002f8:	0252      	lsls	r2, r2, #9
	if (!driver_send_cmd(SDIO_CMD52_IO_RW_DIRECT,
  4002fa:	ea42 62c3 	orr.w	r2, r2, r3, lsl #27
  4002fe:	ea42 7201 	orr.w	r2, r2, r1, lsl #28
  400302:	ea42 72c0 	orr.w	r2, r2, r0, lsl #31
		((uint32_t)*io_data << SDIO_CMD52_WR_DATA)
  400306:	7821      	ldrb	r1, [r4, #0]
	if (!driver_send_cmd(SDIO_CMD52_IO_RW_DIRECT,
  400308:	4311      	orrs	r1, r2
  40030a:	f241 3034 	movw	r0, #4916	; 0x1334
  40030e:	4b05      	ldr	r3, [pc, #20]	; (400324 <sdio_cmd52+0x30>)
  400310:	4798      	blx	r3
  400312:	4605      	mov	r5, r0
  400314:	b908      	cbnz	r0, 40031a <sdio_cmd52+0x26>
}
  400316:	4628      	mov	r0, r5
  400318:	bd38      	pop	{r3, r4, r5, pc}
	*io_data = driver_get_response() & 0xFF;
  40031a:	4b03      	ldr	r3, [pc, #12]	; (400328 <sdio_cmd52+0x34>)
  40031c:	4798      	blx	r3
  40031e:	7020      	strb	r0, [r4, #0]
	return true;
  400320:	e7f9      	b.n	400316 <sdio_cmd52+0x22>
  400322:	bf00      	nop
  400324:	00401009 	.word	0x00401009
  400328:	00401035 	.word	0x00401035

0040032c <sd_mmc_cmd9_mci>:
{
  40032c:	b510      	push	{r4, lr}
	if (!driver_send_cmd(SDMMC_MCI_CMD9_SEND_CSD, (uint32_t)sd_mmc_card->rca << 16)) {
  40032e:	4b09      	ldr	r3, [pc, #36]	; (400354 <sd_mmc_cmd9_mci+0x28>)
  400330:	681b      	ldr	r3, [r3, #0]
  400332:	8919      	ldrh	r1, [r3, #8]
  400334:	0409      	lsls	r1, r1, #16
  400336:	f641 3009 	movw	r0, #6921	; 0x1b09
  40033a:	4b07      	ldr	r3, [pc, #28]	; (400358 <sd_mmc_cmd9_mci+0x2c>)
  40033c:	4798      	blx	r3
  40033e:	4604      	mov	r4, r0
  400340:	b908      	cbnz	r0, 400346 <sd_mmc_cmd9_mci+0x1a>
}
  400342:	4620      	mov	r0, r4
  400344:	bd10      	pop	{r4, pc}
	driver_get_response_128(sd_mmc_card->csd);
  400346:	4b03      	ldr	r3, [pc, #12]	; (400354 <sd_mmc_cmd9_mci+0x28>)
  400348:	6818      	ldr	r0, [r3, #0]
  40034a:	300e      	adds	r0, #14
  40034c:	4b03      	ldr	r3, [pc, #12]	; (40035c <sd_mmc_cmd9_mci+0x30>)
  40034e:	4798      	blx	r3
	return true;
  400350:	e7f7      	b.n	400342 <sd_mmc_cmd9_mci+0x16>
  400352:	bf00      	nop
  400354:	20000450 	.word	0x20000450
  400358:	00401009 	.word	0x00401009
  40035c:	00401041 	.word	0x00401041

00400360 <sd_mmc_deselect_slot>:

/**
 * \brief Deselect the current card slot
 */
static void sd_mmc_deselect_slot(void)
{
  400360:	b508      	push	{r3, lr}
	if (sd_mmc_slot_sel < SD_MMC_MEM_CNT) {
  400362:	4b04      	ldr	r3, [pc, #16]	; (400374 <sd_mmc_deselect_slot+0x14>)
  400364:	781b      	ldrb	r3, [r3, #0]
  400366:	b103      	cbz	r3, 40036a <sd_mmc_deselect_slot+0xa>
  400368:	bd08      	pop	{r3, pc}
		driver_deselect_device(sd_mmc_slot_sel);
  40036a:	2000      	movs	r0, #0
  40036c:	4b02      	ldr	r3, [pc, #8]	; (400378 <sd_mmc_deselect_slot+0x18>)
  40036e:	4798      	blx	r3
	}
}
  400370:	e7fa      	b.n	400368 <sd_mmc_deselect_slot+0x8>
  400372:	bf00      	nop
  400374:	20000474 	.word	0x20000474
  400378:	00400fe1 	.word	0x00400fe1

0040037c <sd_mmc_init>:

//-------------------------------------------------------------------
//--------------------- PUBLIC FUNCTIONS ----------------------------

void sd_mmc_init(void)
{
  40037c:	b508      	push	{r3, lr}
	pmc_enable_periph_clk(SD_MMC_##slot##_WP_PIO_ID);
	MREPEAT(SD_MMC_MEM_CNT, SD_MMC_ENABLE_WP_PIN, ~)
# undef SD_MMC_ENABLE_WP_PIN
#endif
	for (uint8_t slot = 0; slot < SD_MMC_MEM_CNT; slot++) {
		sd_mmc_cards[slot].state = SD_MMC_CARD_STATE_NO_CARD;
  40037e:	2204      	movs	r2, #4
  400380:	4b03      	ldr	r3, [pc, #12]	; (400390 <sd_mmc_init+0x14>)
  400382:	729a      	strb	r2, [r3, #10]
	}
	sd_mmc_slot_sel = 0xFF; // No slot configurated
  400384:	22ff      	movs	r2, #255	; 0xff
  400386:	4b03      	ldr	r3, [pc, #12]	; (400394 <sd_mmc_init+0x18>)
  400388:	701a      	strb	r2, [r3, #0]
	driver_init();
  40038a:	4b03      	ldr	r3, [pc, #12]	; (400398 <sd_mmc_init+0x1c>)
  40038c:	4798      	blx	r3
  40038e:	bd08      	pop	{r3, pc}
  400390:	20000454 	.word	0x20000454
  400394:	20000474 	.word	0x20000474
  400398:	00400ef1 	.word	0x00400ef1

0040039c <sd_mmc_check>:
{
	return SD_MMC_MEM_CNT;
}

sd_mmc_err_t sd_mmc_check(uint8_t slot)
{
  40039c:	e92d 43f0 	stmdb	sp!, {r4, r5, r6, r7, r8, r9, lr}
  4003a0:	b095      	sub	sp, #84	; 0x54
	sd_mmc_err_t sd_mmc_err;

	sd_mmc_err = sd_mmc_select_slot(slot);
  4003a2:	4ba7      	ldr	r3, [pc, #668]	; (400640 <sd_mmc_check+0x2a4>)
  4003a4:	4798      	blx	r3
  4003a6:	4604      	mov	r4, r0
	if (sd_mmc_err != SD_MMC_INIT_ONGOING) {
  4003a8:	2801      	cmp	r0, #1
  4003aa:	d005      	beq.n	4003b8 <sd_mmc_check+0x1c>
		sd_mmc_deselect_slot();
  4003ac:	4ba5      	ldr	r3, [pc, #660]	; (400644 <sd_mmc_check+0x2a8>)
  4003ae:	4798      	blx	r3
	}
	sd_mmc_debug("SD/MMC card initialization failed\n\r");
	sd_mmc_card->state = SD_MMC_CARD_STATE_UNUSABLE;
	sd_mmc_deselect_slot();
	return SD_MMC_ERR_UNUSABLE;
}
  4003b0:	4620      	mov	r0, r4
  4003b2:	b015      	add	sp, #84	; 0x54
  4003b4:	e8bd 83f0 	ldmia.w	sp!, {r4, r5, r6, r7, r8, r9, pc}
	uint8_t data = 0x08;
  4003b8:	ae14      	add	r6, sp, #80	; 0x50
  4003ba:	2308      	movs	r3, #8
  4003bc:	f806 3d45 	strb.w	r3, [r6, #-69]!
	sd_mmc_card->type = CARD_TYPE_SD;
  4003c0:	4ba1      	ldr	r3, [pc, #644]	; (400648 <sd_mmc_check+0x2ac>)
  4003c2:	681b      	ldr	r3, [r3, #0]
  4003c4:	2701      	movs	r7, #1
  4003c6:	72df      	strb	r7, [r3, #11]
	sd_mmc_card->version = CARD_VER_UNKNOWN;
  4003c8:	2500      	movs	r5, #0
  4003ca:	731d      	strb	r5, [r3, #12]
	sd_mmc_card->rca = 0;
  4003cc:	811d      	strh	r5, [r3, #8]
	driver_send_clock();
  4003ce:	4b9f      	ldr	r3, [pc, #636]	; (40064c <sd_mmc_check+0x2b0>)
  4003d0:	4798      	blx	r3
	sdio_cmd52(SDIO_CMD52_WRITE_FLAG, SDIO_CIA,SDIO_CCCR_IOA, 0, &data);
  4003d2:	9600      	str	r6, [sp, #0]
  4003d4:	462b      	mov	r3, r5
  4003d6:	2206      	movs	r2, #6
  4003d8:	4629      	mov	r1, r5
  4003da:	4638      	mov	r0, r7
  4003dc:	4e9c      	ldr	r6, [pc, #624]	; (400650 <sd_mmc_check+0x2b4>)
  4003de:	47b0      	blx	r6
	if (!driver_send_cmd(SDMMC_MCI_CMD0_GO_IDLE_STATE, 0)) {
  4003e0:	4629      	mov	r1, r5
  4003e2:	f44f 4080 	mov.w	r0, #16384	; 0x4000
  4003e6:	4b9b      	ldr	r3, [pc, #620]	; (400654 <sd_mmc_check+0x2b8>)
  4003e8:	4798      	blx	r3
  4003ea:	b930      	cbnz	r0, 4003fa <sd_mmc_check+0x5e>
	sd_mmc_card->state = SD_MMC_CARD_STATE_UNUSABLE;
  4003ec:	4b96      	ldr	r3, [pc, #600]	; (400648 <sd_mmc_check+0x2ac>)
  4003ee:	681b      	ldr	r3, [r3, #0]
  4003f0:	2403      	movs	r4, #3
  4003f2:	729c      	strb	r4, [r3, #10]
	sd_mmc_deselect_slot();
  4003f4:	4b93      	ldr	r3, [pc, #588]	; (400644 <sd_mmc_check+0x2a8>)
  4003f6:	4798      	blx	r3
	return SD_MMC_ERR_UNUSABLE;
  4003f8:	e7da      	b.n	4003b0 <sd_mmc_check+0x14>
	if (!driver_send_cmd(SD_CMD8_SEND_IF_COND,
  4003fa:	f44f 71d5 	mov.w	r1, #426	; 0x1aa
  4003fe:	f245 5008 	movw	r0, #21768	; 0x5508
  400402:	4b94      	ldr	r3, [pc, #592]	; (400654 <sd_mmc_check+0x2b8>)
  400404:	4798      	blx	r3
  400406:	2800      	cmp	r0, #0
  400408:	f040 8093 	bne.w	400532 <sd_mmc_check+0x196>
	*v2 = 0;
  40040c:	f04f 0900 	mov.w	r9, #0
	if (!driver_send_cmd(SDIO_CMD5_SEND_OP_COND, 0)) {
  400410:	2100      	movs	r1, #0
  400412:	f244 5005 	movw	r0, #17669	; 0x4505
  400416:	4b8f      	ldr	r3, [pc, #572]	; (400654 <sd_mmc_check+0x2b8>)
  400418:	4798      	blx	r3
  40041a:	2800      	cmp	r0, #0
  40041c:	f040 8097 	bne.w	40054e <sd_mmc_check+0x1b2>
	if (sd_mmc_card->type & CARD_TYPE_SD) {
  400420:	4b89      	ldr	r3, [pc, #548]	; (400648 <sd_mmc_check+0x2ac>)
  400422:	681b      	ldr	r3, [r3, #0]
  400424:	7adb      	ldrb	r3, [r3, #11]
  400426:	f013 0f01 	tst.w	r3, #1
  40042a:	f040 80b5 	bne.w	400598 <sd_mmc_check+0x1fc>
	if (!driver_send_cmd(SD_CMD3_SEND_RELATIVE_ADDR, 0)) {
  40042e:	2100      	movs	r1, #0
  400430:	f245 1003 	movw	r0, #20739	; 0x5103
  400434:	4b87      	ldr	r3, [pc, #540]	; (400654 <sd_mmc_check+0x2b8>)
  400436:	4798      	blx	r3
  400438:	2800      	cmp	r0, #0
  40043a:	d0d7      	beq.n	4003ec <sd_mmc_check+0x50>
	sd_mmc_card->rca = (driver_get_response() >> 16) & 0xFFFF;
  40043c:	4d82      	ldr	r5, [pc, #520]	; (400648 <sd_mmc_check+0x2ac>)
  40043e:	682e      	ldr	r6, [r5, #0]
  400440:	4b85      	ldr	r3, [pc, #532]	; (400658 <sd_mmc_check+0x2bc>)
  400442:	4798      	blx	r3
  400444:	0c00      	lsrs	r0, r0, #16
  400446:	8130      	strh	r0, [r6, #8]
	if (sd_mmc_card->type & CARD_TYPE_SD) {
  400448:	682b      	ldr	r3, [r5, #0]
  40044a:	7adb      	ldrb	r3, [r3, #11]
  40044c:	f013 0f01 	tst.w	r3, #1
  400450:	d034      	beq.n	4004bc <sd_mmc_check+0x120>
		if (!sd_mmc_cmd9_mci()) {
  400452:	4b82      	ldr	r3, [pc, #520]	; (40065c <sd_mmc_check+0x2c0>)
  400454:	4798      	blx	r3
  400456:	2800      	cmp	r0, #0
  400458:	d0c8      	beq.n	4003ec <sd_mmc_check+0x50>
	tran_speed = CSD_TRAN_SPEED(sd_mmc_card->csd);
  40045a:	682b      	ldr	r3, [r5, #0]
 */
static inline uint32_t SDMMC_UNSTUFF_BITS(uint8_t *reg, uint16_t reg_size,
		uint16_t pos, uint8_t size)
{
	uint32_t value;
	value = reg[((reg_size - pos + 7) / 8) - 1] >> (pos % 8);
  40045c:	7c5a      	ldrb	r2, [r3, #17]
	mul = sd_trans_multipliers[(tran_speed >> 3) & 0xF];
  40045e:	f3c2 00c3 	ubfx	r0, r2, #3, #4
	unit = sd_mmc_trans_units[tran_speed & 0x7];
  400462:	f002 0207 	and.w	r2, r2, #7
	sd_mmc_card->clock = unit * mul * 1000;
  400466:	497e      	ldr	r1, [pc, #504]	; (400660 <sd_mmc_check+0x2c4>)
  400468:	f851 1022 	ldr.w	r1, [r1, r2, lsl #2]
  40046c:	f44f 727a 	mov.w	r2, #1000	; 0x3e8
  400470:	fb02 f201 	mul.w	r2, r2, r1
  400474:	497b      	ldr	r1, [pc, #492]	; (400664 <sd_mmc_check+0x2c8>)
  400476:	f851 1020 	ldr.w	r1, [r1, r0, lsl #2]
  40047a:	fb02 f201 	mul.w	r2, r2, r1
  40047e:	601a      	str	r2, [r3, #0]
	if (CSD_STRUCTURE_VERSION(sd_mmc_card->csd) >= SD_CSD_VER_2_0) {
  400480:	7b9a      	ldrb	r2, [r3, #14]
  400482:	0992      	lsrs	r2, r2, #6
  400484:	f040 820b 	bne.w	40089e <sd_mmc_check+0x502>
  400488:	7d99      	ldrb	r1, [r3, #22]
	if (((pos % 8) + size) > 8) {
		value |= (uint32_t)reg[((reg_size - pos + 7) / 8) - 2] << (8 - (pos % 8));
  40048a:	7d58      	ldrb	r0, [r3, #21]
	}
	if (((pos % 8) + size) > 16) {
		value |= (uint32_t)reg[((reg_size - pos + 7) / 8) - 3] << (16 - (pos % 8));
  40048c:	7d1a      	ldrb	r2, [r3, #20]
  40048e:	0292      	lsls	r2, r2, #10
	}
	if (((pos % 8) + size) > 16) {
		value |= (uint32_t)reg[((reg_size - pos + 7) / 8) - 3] << (16 - (pos % 8));
  400490:	ea42 0280 	orr.w	r2, r2, r0, lsl #2
  400494:	ea42 12a1 	orr.w	r2, r2, r1, asr #6
	value = reg[((reg_size - pos + 7) / 8) - 1] >> (pos % 8);
  400498:	7e18      	ldrb	r0, [r3, #24]
		value |= (uint32_t)reg[((reg_size - pos + 7) / 8) - 2] << (8 - (pos % 8));
  40049a:	7dd9      	ldrb	r1, [r3, #23]
  40049c:	0049      	lsls	r1, r1, #1
  40049e:	ea41 11e0 	orr.w	r1, r1, r0, asr #7
	}
	value &=  ((uint32_t)1 << size) - 1;
  4004a2:	f3c2 020b 	ubfx	r2, r2, #0, #12
		uint32_t blocknr = ((SD_CSD_1_0_C_SIZE(sd_mmc_card->csd) + 1) *
  4004a6:	3201      	adds	r2, #1
  4004a8:	f001 0107 	and.w	r1, r1, #7
				(1 << (SD_CSD_1_0_C_SIZE_MULT(sd_mmc_card->csd) + 2)));
  4004ac:	3102      	adds	r1, #2
		uint32_t blocknr = ((SD_CSD_1_0_C_SIZE(sd_mmc_card->csd) + 1) *
  4004ae:	408a      	lsls	r2, r1
  4004b0:	7cd9      	ldrb	r1, [r3, #19]
  4004b2:	f001 010f 	and.w	r1, r1, #15
		sd_mmc_card->capacity = blocknr *
  4004b6:	408a      	lsls	r2, r1
				/ 1024;
  4004b8:	0a92      	lsrs	r2, r2, #10
		sd_mmc_card->capacity = blocknr *
  4004ba:	605a      	str	r2, [r3, #4]
			(uint32_t)sd_mmc_card->rca << 16)) {
  4004bc:	4b62      	ldr	r3, [pc, #392]	; (400648 <sd_mmc_check+0x2ac>)
  4004be:	681b      	ldr	r3, [r3, #0]
  4004c0:	8919      	ldrh	r1, [r3, #8]
	if (!driver_send_cmd(SDMMC_CMD7_SELECT_CARD_CMD,
  4004c2:	0409      	lsls	r1, r1, #16
  4004c4:	f243 1007 	movw	r0, #12551	; 0x3107
  4004c8:	4b62      	ldr	r3, [pc, #392]	; (400654 <sd_mmc_check+0x2b8>)
  4004ca:	4798      	blx	r3
  4004cc:	2800      	cmp	r0, #0
  4004ce:	d08d      	beq.n	4003ec <sd_mmc_check+0x50>
	if (sd_mmc_card->type & CARD_TYPE_SD) {
  4004d0:	4b5d      	ldr	r3, [pc, #372]	; (400648 <sd_mmc_check+0x2ac>)
  4004d2:	681b      	ldr	r3, [r3, #0]
  4004d4:	7ada      	ldrb	r2, [r3, #11]
  4004d6:	f012 0f01 	tst.w	r2, #1
  4004da:	f040 81ed 	bne.w	4008b8 <sd_mmc_check+0x51c>
	if (IS_SDIO()) {
  4004de:	4b5a      	ldr	r3, [pc, #360]	; (400648 <sd_mmc_check+0x2ac>)
  4004e0:	681b      	ldr	r3, [r3, #0]
  4004e2:	7adb      	ldrb	r3, [r3, #11]
  4004e4:	f013 0f04 	tst.w	r3, #4
  4004e8:	f000 829c 	beq.w	400a24 <sd_mmc_check+0x688>
  4004ec:	2509      	movs	r5, #9
		sdio_cmd52(SDIO_CMD52_READ_FLAG, SDIO_CIA, addr_old, 0, &addr_cis[i]);
  4004ee:	2700      	movs	r7, #0
  4004f0:	4e57      	ldr	r6, [pc, #348]	; (400650 <sd_mmc_check+0x2b4>)
  4004f2:	f1a5 0309 	sub.w	r3, r5, #9
  4004f6:	aa03      	add	r2, sp, #12
  4004f8:	4413      	add	r3, r2
  4004fa:	9300      	str	r3, [sp, #0]
  4004fc:	463b      	mov	r3, r7
  4004fe:	462a      	mov	r2, r5
  400500:	4639      	mov	r1, r7
  400502:	4638      	mov	r0, r7
  400504:	47b0      	blx	r6
		addr_old++;
  400506:	3501      	adds	r5, #1
	for(i = 0; i < 4; i++) {
  400508:	2d0d      	cmp	r5, #13
  40050a:	d1f2      	bne.n	4004f2 <sd_mmc_check+0x156>
	addr_old = addr_cis[0] + (addr_cis[1] << 8) + \
  40050c:	f89d 300d 	ldrb.w	r3, [sp, #13]
  400510:	f89d 900c 	ldrb.w	r9, [sp, #12]
  400514:	eb09 2903 	add.w	r9, r9, r3, lsl #8
				(addr_cis[2] << 16) + (addr_cis[3] << 24);
  400518:	f89d 300e 	ldrb.w	r3, [sp, #14]
	addr_old = addr_cis[0] + (addr_cis[1] << 8) + \
  40051c:	eb09 4903 	add.w	r9, r9, r3, lsl #16
				(addr_cis[2] << 16) + (addr_cis[3] << 24);
  400520:	f89d 300f 	ldrb.w	r3, [sp, #15]
  400524:	eb09 6903 	add.w	r9, r9, r3, lsl #24
	addr_new = addr_old;
  400528:	464e      	mov	r6, r9
			sdio_cmd52(SDIO_CMD52_READ_FLAG, SDIO_CIA, addr_new, 0, &buf[i]);
  40052a:	f04f 0800 	mov.w	r8, #0
  40052e:	4f48      	ldr	r7, [pc, #288]	; (400650 <sd_mmc_check+0x2b4>)
  400530:	e239      	b.n	4009a6 <sd_mmc_check+0x60a>
	resp = driver_get_response();
  400532:	4b49      	ldr	r3, [pc, #292]	; (400658 <sd_mmc_check+0x2bc>)
  400534:	4798      	blx	r3
	if (resp == 0xFFFFFFFF) {
  400536:	f1b0 3fff 	cmp.w	r0, #4294967295
  40053a:	f000 8347 	beq.w	400bcc <sd_mmc_check+0x830>
	if ((resp & (SD_CMD8_MASK_PATTERN | SD_CMD8_MASK_VOLTAGE))
  40053e:	f3c0 000b 	ubfx	r0, r0, #0, #12
  400542:	f5b0 7fd5 	cmp.w	r0, #426	; 0x1aa
  400546:	f47f af51 	bne.w	4003ec <sd_mmc_check+0x50>
	*v2 = 1;
  40054a:	46b9      	mov	r9, r7
  40054c:	e760      	b.n	400410 <sd_mmc_check+0x74>
	resp = driver_get_response();
  40054e:	4b42      	ldr	r3, [pc, #264]	; (400658 <sd_mmc_check+0x2bc>)
  400550:	4798      	blx	r3
	if ((resp & OCR_SDIO_NF) == 0) {
  400552:	f010 4fe0 	tst.w	r0, #1879048192	; 0x70000000
  400556:	f43f af63 	beq.w	400420 <sd_mmc_check+0x84>
  40055a:	f241 3589 	movw	r5, #5001	; 0x1389
		if (!driver_send_cmd(SDIO_CMD5_SEND_OP_COND,
  40055e:	f244 5805 	movw	r8, #17669	; 0x4505
  400562:	4e3c      	ldr	r6, [pc, #240]	; (400654 <sd_mmc_check+0x2b8>)
		resp = driver_get_response();
  400564:	4f3c      	ldr	r7, [pc, #240]	; (400658 <sd_mmc_check+0x2bc>)
		if (!driver_send_cmd(SDIO_CMD5_SEND_OP_COND,
  400566:	f400 11fc 	and.w	r1, r0, #2064384	; 0x1f8000
  40056a:	4640      	mov	r0, r8
  40056c:	47b0      	blx	r6
  40056e:	2800      	cmp	r0, #0
  400570:	f43f af3c 	beq.w	4003ec <sd_mmc_check+0x50>
		resp = driver_get_response();
  400574:	47b8      	blx	r7
		if ((resp & OCR_POWER_UP_BUSY) == OCR_POWER_UP_BUSY) {
  400576:	2800      	cmp	r0, #0
  400578:	db02      	blt.n	400580 <sd_mmc_check+0x1e4>
		if (cmd5_retry-- == 0) {
  40057a:	3d01      	subs	r5, #1
  40057c:	d1f3      	bne.n	400566 <sd_mmc_check+0x1ca>
  40057e:	e735      	b.n	4003ec <sd_mmc_check+0x50>
	if ((resp & OCR_SDIO_MP) > 0) {
  400580:	f010 6f00 	tst.w	r0, #134217728	; 0x8000000
  400584:	d104      	bne.n	400590 <sd_mmc_check+0x1f4>
		sd_mmc_card->type = CARD_TYPE_SDIO;
  400586:	4b30      	ldr	r3, [pc, #192]	; (400648 <sd_mmc_check+0x2ac>)
  400588:	681b      	ldr	r3, [r3, #0]
  40058a:	2204      	movs	r2, #4
  40058c:	72da      	strb	r2, [r3, #11]
  40058e:	e74e      	b.n	40042e <sd_mmc_check+0x92>
		sd_mmc_card->type = CARD_TYPE_SD_COMBO;
  400590:	4b2d      	ldr	r3, [pc, #180]	; (400648 <sd_mmc_check+0x2ac>)
  400592:	681b      	ldr	r3, [r3, #0]
  400594:	2205      	movs	r2, #5
  400596:	72da      	strb	r2, [r3, #11]
  400598:	f1b9 0f00 	cmp.w	r9, #0
  40059c:	4f32      	ldr	r7, [pc, #200]	; (400668 <sd_mmc_check+0x2cc>)
  40059e:	bf14      	ite	ne
  4005a0:	46b9      	movne	r9, r7
  4005a2:	f44f 19fc 	moveq.w	r9, #2064384	; 0x1f8000
	if ((resp & OCR_SDIO_NF) == 0) {
  4005a6:	f640 0535 	movw	r5, #2101	; 0x835
		if (!driver_send_cmd(SDMMC_CMD55_APP_CMD, 0)) {
  4005aa:	f04f 0800 	mov.w	r8, #0
  4005ae:	4e29      	ldr	r6, [pc, #164]	; (400654 <sd_mmc_check+0x2b8>)
		resp = driver_get_response();
  4005b0:	4f29      	ldr	r7, [pc, #164]	; (400658 <sd_mmc_check+0x2bc>)
		if (!driver_send_cmd(SDMMC_CMD55_APP_CMD, 0)) {
  4005b2:	4641      	mov	r1, r8
  4005b4:	f241 1037 	movw	r0, #4407	; 0x1137
  4005b8:	47b0      	blx	r6
  4005ba:	b148      	cbz	r0, 4005d0 <sd_mmc_check+0x234>
		if (!driver_send_cmd(SD_MCI_ACMD41_SD_SEND_OP_COND, arg)) {
  4005bc:	4649      	mov	r1, r9
  4005be:	f244 5029 	movw	r0, #17705	; 0x4529
  4005c2:	47b0      	blx	r6
  4005c4:	b120      	cbz	r0, 4005d0 <sd_mmc_check+0x234>
		resp = driver_get_response();
  4005c6:	47b8      	blx	r7
		if (resp & OCR_POWER_UP_BUSY) {
  4005c8:	2800      	cmp	r0, #0
  4005ca:	db20      	blt.n	40060e <sd_mmc_check+0x272>
		if (retry-- == 0) {
  4005cc:	3d01      	subs	r5, #1
  4005ce:	d1f0      	bne.n	4005b2 <sd_mmc_check+0x216>
			sd_mmc_card->type = CARD_TYPE_MMC;
  4005d0:	4b1d      	ldr	r3, [pc, #116]	; (400648 <sd_mmc_check+0x2ac>)
  4005d2:	681b      	ldr	r3, [r3, #0]
  4005d4:	2202      	movs	r2, #2
  4005d6:	72da      	strb	r2, [r3, #11]
	if (!driver_send_cmd(SDMMC_MCI_CMD0_GO_IDLE_STATE, 0)) {
  4005d8:	2100      	movs	r1, #0
  4005da:	f44f 4080 	mov.w	r0, #16384	; 0x4000
  4005de:	4b1d      	ldr	r3, [pc, #116]	; (400654 <sd_mmc_check+0x2b8>)
  4005e0:	4798      	blx	r3
  4005e2:	2800      	cmp	r0, #0
  4005e4:	f43f af02 	beq.w	4003ec <sd_mmc_check+0x50>
  4005e8:	f241 0569 	movw	r5, #4201	; 0x1069
		if (!driver_send_cmd(MMC_MCI_CMD1_SEND_OP_COND,
  4005ec:	f8df 8078 	ldr.w	r8, [pc, #120]	; 400668 <sd_mmc_check+0x2cc>
  4005f0:	4e18      	ldr	r6, [pc, #96]	; (400654 <sd_mmc_check+0x2b8>)
		resp = driver_get_response();
  4005f2:	4f19      	ldr	r7, [pc, #100]	; (400658 <sd_mmc_check+0x2bc>)
		if (!driver_send_cmd(MMC_MCI_CMD1_SEND_OP_COND,
  4005f4:	4641      	mov	r1, r8
  4005f6:	f244 5001 	movw	r0, #17665	; 0x4501
  4005fa:	47b0      	blx	r6
  4005fc:	2800      	cmp	r0, #0
  4005fe:	f43f aef5 	beq.w	4003ec <sd_mmc_check+0x50>
		resp = driver_get_response();
  400602:	47b8      	blx	r7
		if (resp & OCR_POWER_UP_BUSY) {
  400604:	2800      	cmp	r0, #0
  400606:	db31      	blt.n	40066c <sd_mmc_check+0x2d0>
		if (retry-- == 0) {
  400608:	3d01      	subs	r5, #1
  40060a:	d1f3      	bne.n	4005f4 <sd_mmc_check+0x258>
  40060c:	e6ee      	b.n	4003ec <sd_mmc_check+0x50>
			if ((resp & OCR_CCS) != 0) {
  40060e:	f010 4f80 	tst.w	r0, #1073741824	; 0x40000000
  400612:	d005      	beq.n	400620 <sd_mmc_check+0x284>
				sd_mmc_card->type |= CARD_TYPE_HC;
  400614:	4b0c      	ldr	r3, [pc, #48]	; (400648 <sd_mmc_check+0x2ac>)
  400616:	681a      	ldr	r2, [r3, #0]
  400618:	7ad3      	ldrb	r3, [r2, #11]
  40061a:	f043 0308 	orr.w	r3, r3, #8
  40061e:	72d3      	strb	r3, [r2, #11]
	if (sd_mmc_card->type & CARD_TYPE_SD) {
  400620:	4b09      	ldr	r3, [pc, #36]	; (400648 <sd_mmc_check+0x2ac>)
  400622:	681b      	ldr	r3, [r3, #0]
  400624:	7adb      	ldrb	r3, [r3, #11]
  400626:	f013 0f01 	tst.w	r3, #1
  40062a:	f43f af00 	beq.w	40042e <sd_mmc_check+0x92>
		if (!driver_send_cmd(SDMMC_CMD2_ALL_SEND_CID, 0)) {
  40062e:	2100      	movs	r1, #0
  400630:	f645 3002 	movw	r0, #23298	; 0x5b02
  400634:	4b07      	ldr	r3, [pc, #28]	; (400654 <sd_mmc_check+0x2b8>)
  400636:	4798      	blx	r3
  400638:	2800      	cmp	r0, #0
  40063a:	f47f aef8 	bne.w	40042e <sd_mmc_check+0x92>
  40063e:	e6d5      	b.n	4003ec <sd_mmc_check+0x50>
  400640:	0040029d 	.word	0x0040029d
  400644:	00400361 	.word	0x00400361
  400648:	20000450 	.word	0x20000450
  40064c:	00400fe5 	.word	0x00400fe5
  400650:	004002f5 	.word	0x004002f5
  400654:	00401009 	.word	0x00401009
  400658:	00401035 	.word	0x00401035
  40065c:	0040032d 	.word	0x0040032d
  400660:	00401c48 	.word	0x00401c48
  400664:	00401c64 	.word	0x00401c64
  400668:	401f8000 	.word	0x401f8000
			if ((resp & OCR_ACCESS_MODE_MASK)
  40066c:	f000 40c0 	and.w	r0, r0, #1610612736	; 0x60000000
  400670:	f1b0 4f80 	cmp.w	r0, #1073741824	; 0x40000000
  400674:	d027      	beq.n	4006c6 <sd_mmc_check+0x32a>
	if (!driver_send_cmd(SDMMC_CMD2_ALL_SEND_CID, 0)) {
  400676:	2100      	movs	r1, #0
  400678:	f645 3002 	movw	r0, #23298	; 0x5b02
  40067c:	4ba7      	ldr	r3, [pc, #668]	; (40091c <sd_mmc_check+0x580>)
  40067e:	4798      	blx	r3
  400680:	2800      	cmp	r0, #0
  400682:	f43f aeb3 	beq.w	4003ec <sd_mmc_check+0x50>
	sd_mmc_card->rca = 1;
  400686:	4ba6      	ldr	r3, [pc, #664]	; (400920 <sd_mmc_check+0x584>)
  400688:	681b      	ldr	r3, [r3, #0]
  40068a:	2201      	movs	r2, #1
  40068c:	811a      	strh	r2, [r3, #8]
	if (!driver_send_cmd(MMC_CMD3_SET_RELATIVE_ADDR,
  40068e:	f44f 3180 	mov.w	r1, #65536	; 0x10000
  400692:	f241 1003 	movw	r0, #4355	; 0x1103
  400696:	4ba1      	ldr	r3, [pc, #644]	; (40091c <sd_mmc_check+0x580>)
  400698:	4798      	blx	r3
  40069a:	2800      	cmp	r0, #0
  40069c:	f43f aea6 	beq.w	4003ec <sd_mmc_check+0x50>
	if (!sd_mmc_cmd9_mci()) {
  4006a0:	4ba0      	ldr	r3, [pc, #640]	; (400924 <sd_mmc_check+0x588>)
  4006a2:	4798      	blx	r3
  4006a4:	2800      	cmp	r0, #0
  4006a6:	f43f aea1 	beq.w	4003ec <sd_mmc_check+0x50>
	switch (MMC_CSD_SPEC_VERS(sd_mmc_card->csd)) {
  4006aa:	4b9d      	ldr	r3, [pc, #628]	; (400920 <sd_mmc_check+0x584>)
  4006ac:	681a      	ldr	r2, [r3, #0]
	value = reg[((reg_size - pos + 7) / 8) - 1] >> (pos % 8);
  4006ae:	7b93      	ldrb	r3, [r2, #14]
	value &=  ((uint32_t)1 << size) - 1;
  4006b0:	f3c3 0383 	ubfx	r3, r3, #2, #4
  4006b4:	3b01      	subs	r3, #1
  4006b6:	2b03      	cmp	r3, #3
  4006b8:	d80c      	bhi.n	4006d4 <sd_mmc_check+0x338>
  4006ba:	e8df f013 	tbh	[pc, r3, lsl #1]
  4006be:	00cc      	.short	0x00cc
  4006c0:	00d200cf 	.word	0x00d200cf
  4006c4:	00d5      	.short	0x00d5
				sd_mmc_card->type |= CARD_TYPE_HC;
  4006c6:	4b96      	ldr	r3, [pc, #600]	; (400920 <sd_mmc_check+0x584>)
  4006c8:	681a      	ldr	r2, [r3, #0]
  4006ca:	7ad3      	ldrb	r3, [r2, #11]
  4006cc:	f043 0308 	orr.w	r3, r3, #8
  4006d0:	72d3      	strb	r3, [r2, #11]
  4006d2:	e7d0      	b.n	400676 <sd_mmc_check+0x2da>
		sd_mmc_card->version = CARD_VER_MMC_1_2;
  4006d4:	2312      	movs	r3, #18
  4006d6:	7313      	strb	r3, [r2, #12]
	value = reg[((reg_size - pos + 7) / 8) - 1] >> (pos % 8);
  4006d8:	7c53      	ldrb	r3, [r2, #17]
	mul = mmc_trans_multipliers[(tran_speed >> 3) & 0xF];
  4006da:	f3c3 00c3 	ubfx	r0, r3, #3, #4
	unit = sd_mmc_trans_units[tran_speed & 0x7];
  4006de:	f003 0307 	and.w	r3, r3, #7
	sd_mmc_card->clock = unit * mul * 1000;
  4006e2:	4991      	ldr	r1, [pc, #580]	; (400928 <sd_mmc_check+0x58c>)
  4006e4:	f851 1023 	ldr.w	r1, [r1, r3, lsl #2]
  4006e8:	f44f 737a 	mov.w	r3, #1000	; 0x3e8
  4006ec:	fb03 f301 	mul.w	r3, r3, r1
  4006f0:	498e      	ldr	r1, [pc, #568]	; (40092c <sd_mmc_check+0x590>)
  4006f2:	f851 1020 	ldr.w	r1, [r1, r0, lsl #2]
  4006f6:	fb03 f301 	mul.w	r3, r3, r1
  4006fa:	6013      	str	r3, [r2, #0]
  4006fc:	7d91      	ldrb	r1, [r2, #22]
		value |= (uint32_t)reg[((reg_size - pos + 7) / 8) - 2] << (8 - (pos % 8));
  4006fe:	7d50      	ldrb	r0, [r2, #21]
		value |= (uint32_t)reg[((reg_size - pos + 7) / 8) - 3] << (16 - (pos % 8));
  400700:	7d13      	ldrb	r3, [r2, #20]
  400702:	029b      	lsls	r3, r3, #10
		value |= (uint32_t)reg[((reg_size - pos + 7) / 8) - 3] << (16 - (pos % 8));
  400704:	ea43 0380 	orr.w	r3, r3, r0, lsl #2
  400708:	ea43 13a1 	orr.w	r3, r3, r1, asr #6
	value &=  ((uint32_t)1 << size) - 1;
  40070c:	f3c3 030b 	ubfx	r3, r3, #0, #12
	if (MMC_CSD_C_SIZE(sd_mmc_card->csd) != 0xFFF) {
  400710:	f640 71ff 	movw	r1, #4095	; 0xfff
  400714:	428b      	cmp	r3, r1
  400716:	d00f      	beq.n	400738 <sd_mmc_check+0x39c>
	value = reg[((reg_size - pos + 7) / 8) - 1] >> (pos % 8);
  400718:	7e10      	ldrb	r0, [r2, #24]
		value |= (uint32_t)reg[((reg_size - pos + 7) / 8) - 2] << (8 - (pos % 8));
  40071a:	7dd1      	ldrb	r1, [r2, #23]
  40071c:	0049      	lsls	r1, r1, #1
  40071e:	ea41 11e0 	orr.w	r1, r1, r0, asr #7
		uint32_t blocknr = ((MMC_CSD_C_SIZE(sd_mmc_card->csd) + 1) *
  400722:	3301      	adds	r3, #1
	value &=  ((uint32_t)1 << size) - 1;
  400724:	f001 0107 	and.w	r1, r1, #7
			(1 << (MMC_CSD_C_SIZE_MULT(sd_mmc_card->csd) + 2)));
  400728:	3102      	adds	r1, #2
		uint32_t blocknr = ((MMC_CSD_C_SIZE(sd_mmc_card->csd) + 1) *
  40072a:	408b      	lsls	r3, r1
  40072c:	7cd1      	ldrb	r1, [r2, #19]
  40072e:	f001 010f 	and.w	r1, r1, #15
		sd_mmc_card->capacity = blocknr *
  400732:	408b      	lsls	r3, r1
			(1 << MMC_CSD_READ_BL_LEN(sd_mmc_card->csd)) / 1024;
  400734:	0a9b      	lsrs	r3, r3, #10
		sd_mmc_card->capacity = blocknr *
  400736:	6053      	str	r3, [r2, #4]
			(uint32_t)sd_mmc_card->rca << 16)) {
  400738:	8911      	ldrh	r1, [r2, #8]
	if (!driver_send_cmd(SDMMC_CMD7_SELECT_CARD_CMD,
  40073a:	0409      	lsls	r1, r1, #16
  40073c:	f243 1007 	movw	r0, #12551	; 0x3107
  400740:	4b76      	ldr	r3, [pc, #472]	; (40091c <sd_mmc_check+0x580>)
  400742:	4798      	blx	r3
  400744:	2800      	cmp	r0, #0
  400746:	f43f ae51 	beq.w	4003ec <sd_mmc_check+0x50>
	if (sd_mmc_card->version >= CARD_VER_MMC_4) {
  40074a:	4b75      	ldr	r3, [pc, #468]	; (400920 <sd_mmc_check+0x584>)
  40074c:	681b      	ldr	r3, [r3, #0]
  40074e:	7b1b      	ldrb	r3, [r3, #12]
  400750:	2b3f      	cmp	r3, #63	; 0x3f
  400752:	f240 8096 	bls.w	400882 <sd_mmc_check+0x4e6>
	if (!driver_adtc_start(MMC_CMD8_SEND_EXT_CSD, 0,
  400756:	2100      	movs	r1, #0
  400758:	9100      	str	r1, [sp, #0]
  40075a:	2301      	movs	r3, #1
  40075c:	f44f 7200 	mov.w	r2, #512	; 0x200
  400760:	4873      	ldr	r0, [pc, #460]	; (400930 <sd_mmc_check+0x594>)
  400762:	4d74      	ldr	r5, [pc, #464]	; (400934 <sd_mmc_check+0x598>)
  400764:	47a8      	blx	r5
  400766:	2800      	cmp	r0, #0
  400768:	f43f ae40 	beq.w	4003ec <sd_mmc_check+0x50>
  40076c:	2500      	movs	r5, #0
		if (!driver_read_word(&ext_csd)) {
  40076e:	4e72      	ldr	r6, [pc, #456]	; (400938 <sd_mmc_check+0x59c>)
  400770:	a803      	add	r0, sp, #12
  400772:	47b0      	blx	r6
  400774:	2800      	cmp	r0, #0
  400776:	f43f ae39 	beq.w	4003ec <sd_mmc_check+0x50>
	for (i = 0; i < (EXT_CSD_CARD_TYPE_INDEX + 4) / 4; i++) {
  40077a:	3501      	adds	r5, #1
  40077c:	b2ad      	uxth	r5, r5
  40077e:	2d32      	cmp	r5, #50	; 0x32
  400780:	d1f6      	bne.n	400770 <sd_mmc_check+0x3d4>
			& MMC_CTYPE_52MHZ;
  400782:	9e03      	ldr	r6, [sp, #12]
  400784:	f006 0602 	and.w	r6, r6, #2
	if (MMC_CSD_C_SIZE(sd_mmc_card->csd) == 0xFFF) {
  400788:	4b65      	ldr	r3, [pc, #404]	; (400920 <sd_mmc_check+0x584>)
  40078a:	681b      	ldr	r3, [r3, #0]
	value = reg[((reg_size - pos + 7) / 8) - 1] >> (pos % 8);
  40078c:	7d9a      	ldrb	r2, [r3, #22]
		value |= (uint32_t)reg[((reg_size - pos + 7) / 8) - 2] << (8 - (pos % 8));
  40078e:	7d59      	ldrb	r1, [r3, #21]
		value |= (uint32_t)reg[((reg_size - pos + 7) / 8) - 3] << (16 - (pos % 8));
  400790:	7d1b      	ldrb	r3, [r3, #20]
  400792:	029b      	lsls	r3, r3, #10
		value |= (uint32_t)reg[((reg_size - pos + 7) / 8) - 3] << (16 - (pos % 8));
  400794:	ea43 0381 	orr.w	r3, r3, r1, lsl #2
  400798:	ea43 13a2 	orr.w	r3, r3, r2, asr #6
	value &=  ((uint32_t)1 << size) - 1;
  40079c:	f3c3 030b 	ubfx	r3, r3, #0, #12
  4007a0:	f640 72ff 	movw	r2, #4095	; 0xfff
  4007a4:	4293      	cmp	r3, r2
  4007a6:	d10e      	bne.n	4007c6 <sd_mmc_check+0x42a>
			if (!driver_read_word(&sec_count)) {
  4007a8:	4f63      	ldr	r7, [pc, #396]	; (400938 <sd_mmc_check+0x59c>)
  4007aa:	a804      	add	r0, sp, #16
  4007ac:	47b8      	blx	r7
  4007ae:	2800      	cmp	r0, #0
  4007b0:	f43f ae1c 	beq.w	4003ec <sd_mmc_check+0x50>
		for (; i <(EXT_CSD_SEC_COUNT_INDEX + 4) / 4; i++) {
  4007b4:	3501      	adds	r5, #1
  4007b6:	b2ad      	uxth	r5, r5
  4007b8:	2d35      	cmp	r5, #53	; 0x35
  4007ba:	d9f6      	bls.n	4007aa <sd_mmc_check+0x40e>
		sd_mmc_card->capacity = sec_count / 2;
  4007bc:	4b58      	ldr	r3, [pc, #352]	; (400920 <sd_mmc_check+0x584>)
  4007be:	681a      	ldr	r2, [r3, #0]
  4007c0:	9b04      	ldr	r3, [sp, #16]
  4007c2:	085b      	lsrs	r3, r3, #1
  4007c4:	6053      	str	r3, [r2, #4]
		if (!driver_read_word(&sec_count)) {
  4007c6:	4f5c      	ldr	r7, [pc, #368]	; (400938 <sd_mmc_check+0x59c>)
	for (; i < EXT_CSD_BSIZE / 4; i++) {
  4007c8:	2d7f      	cmp	r5, #127	; 0x7f
  4007ca:	d950      	bls.n	40086e <sd_mmc_check+0x4d2>
		if (4 <= driver_get_bus_width(sd_mmc_slot_sel)) {
  4007cc:	4b5b      	ldr	r3, [pc, #364]	; (40093c <sd_mmc_check+0x5a0>)
  4007ce:	7818      	ldrb	r0, [r3, #0]
  4007d0:	4b5b      	ldr	r3, [pc, #364]	; (400940 <sd_mmc_check+0x5a4>)
  4007d2:	4798      	blx	r3
  4007d4:	2803      	cmp	r0, #3
  4007d6:	d91d      	bls.n	400814 <sd_mmc_check+0x478>
			if (!mmc_cmd6_set_bus_width(driver_get_bus_width(sd_mmc_slot_sel))) {
  4007d8:	4b58      	ldr	r3, [pc, #352]	; (40093c <sd_mmc_check+0x5a0>)
  4007da:	7818      	ldrb	r0, [r3, #0]
  4007dc:	4b58      	ldr	r3, [pc, #352]	; (400940 <sd_mmc_check+0x5a4>)
  4007de:	4798      	blx	r3
  4007e0:	4605      	mov	r5, r0
	switch (bus_width) {
  4007e2:	2804      	cmp	r0, #4
  4007e4:	d04b      	beq.n	40087e <sd_mmc_check+0x4e2>
		arg = MMC_CMD6_ACCESS_SET_BITS
  4007e6:	4b57      	ldr	r3, [pc, #348]	; (400944 <sd_mmc_check+0x5a8>)
  4007e8:	4957      	ldr	r1, [pc, #348]	; (400948 <sd_mmc_check+0x5ac>)
  4007ea:	2808      	cmp	r0, #8
  4007ec:	bf18      	it	ne
  4007ee:	4619      	movne	r1, r3
	if (!driver_send_cmd(MMC_CMD6_SWITCH, arg)) {
  4007f0:	f243 1006 	movw	r0, #12550	; 0x3106
  4007f4:	4b49      	ldr	r3, [pc, #292]	; (40091c <sd_mmc_check+0x580>)
  4007f6:	4798      	blx	r3
  4007f8:	2800      	cmp	r0, #0
  4007fa:	f43f adf7 	beq.w	4003ec <sd_mmc_check+0x50>
	if (driver_get_response() & CARD_STATUS_SWITCH_ERROR) {
  4007fe:	4b53      	ldr	r3, [pc, #332]	; (40094c <sd_mmc_check+0x5b0>)
  400800:	4798      	blx	r3
  400802:	f010 0f80 	tst.w	r0, #128	; 0x80
  400806:	f47f adf1 	bne.w	4003ec <sd_mmc_check+0x50>
	sd_mmc_card->bus_width = bus_width;
  40080a:	4b45      	ldr	r3, [pc, #276]	; (400920 <sd_mmc_check+0x584>)
  40080c:	681b      	ldr	r3, [r3, #0]
  40080e:	735d      	strb	r5, [r3, #13]
			sd_mmc_configure_slot();
  400810:	4b4f      	ldr	r3, [pc, #316]	; (400950 <sd_mmc_check+0x5b4>)
  400812:	4798      	blx	r3
		if (driver_is_high_speed_capable() && b_authorize_high_speed) {
  400814:	4b4f      	ldr	r3, [pc, #316]	; (400954 <sd_mmc_check+0x5b8>)
  400816:	4798      	blx	r3
  400818:	b1b0      	cbz	r0, 400848 <sd_mmc_check+0x4ac>
  40081a:	b1ae      	cbz	r6, 400848 <sd_mmc_check+0x4ac>
	if (!driver_send_cmd(MMC_CMD6_SWITCH,
  40081c:	494e      	ldr	r1, [pc, #312]	; (400958 <sd_mmc_check+0x5bc>)
  40081e:	f243 1006 	movw	r0, #12550	; 0x3106
  400822:	4b3e      	ldr	r3, [pc, #248]	; (40091c <sd_mmc_check+0x580>)
  400824:	4798      	blx	r3
  400826:	2800      	cmp	r0, #0
  400828:	f43f ade0 	beq.w	4003ec <sd_mmc_check+0x50>
	if (driver_get_response() & CARD_STATUS_SWITCH_ERROR) {
  40082c:	4b47      	ldr	r3, [pc, #284]	; (40094c <sd_mmc_check+0x5b0>)
  40082e:	4798      	blx	r3
  400830:	f010 0f80 	tst.w	r0, #128	; 0x80
  400834:	f47f adda 	bne.w	4003ec <sd_mmc_check+0x50>
	sd_mmc_card->high_speed = 1;
  400838:	4b39      	ldr	r3, [pc, #228]	; (400920 <sd_mmc_check+0x584>)
  40083a:	681b      	ldr	r3, [r3, #0]
  40083c:	2201      	movs	r2, #1
  40083e:	779a      	strb	r2, [r3, #30]
	sd_mmc_card->clock = 52000000lu;
  400840:	4a46      	ldr	r2, [pc, #280]	; (40095c <sd_mmc_check+0x5c0>)
  400842:	601a      	str	r2, [r3, #0]
			sd_mmc_configure_slot();
  400844:	4b42      	ldr	r3, [pc, #264]	; (400950 <sd_mmc_check+0x5b4>)
  400846:	4798      	blx	r3
		arg = MMC_CMD6_ACCESS_SET_BITS
  400848:	250a      	movs	r5, #10
		if (driver_send_cmd(SDMMC_CMD16_SET_BLOCKLEN, SD_MMC_BLOCK_SIZE)) {
  40084a:	f44f 7800 	mov.w	r8, #512	; 0x200
  40084e:	f241 1710 	movw	r7, #4368	; 0x1110
  400852:	4e32      	ldr	r6, [pc, #200]	; (40091c <sd_mmc_check+0x580>)
  400854:	e01d      	b.n	400892 <sd_mmc_check+0x4f6>
		sd_mmc_card->version = CARD_VER_MMC_1_4;
  400856:	2314      	movs	r3, #20
  400858:	7313      	strb	r3, [r2, #12]
  40085a:	e73d      	b.n	4006d8 <sd_mmc_check+0x33c>
		sd_mmc_card->version = CARD_VER_MMC_2_2;
  40085c:	2322      	movs	r3, #34	; 0x22
  40085e:	7313      	strb	r3, [r2, #12]
  400860:	e73a      	b.n	4006d8 <sd_mmc_check+0x33c>
		sd_mmc_card->version = CARD_VER_MMC_3;
  400862:	2330      	movs	r3, #48	; 0x30
  400864:	7313      	strb	r3, [r2, #12]
  400866:	e737      	b.n	4006d8 <sd_mmc_check+0x33c>
		sd_mmc_card->version = CARD_VER_MMC_4;
  400868:	2340      	movs	r3, #64	; 0x40
  40086a:	7313      	strb	r3, [r2, #12]
  40086c:	e734      	b.n	4006d8 <sd_mmc_check+0x33c>
		if (!driver_read_word(&sec_count)) {
  40086e:	a804      	add	r0, sp, #16
  400870:	47b8      	blx	r7
  400872:	2800      	cmp	r0, #0
  400874:	f43f adba 	beq.w	4003ec <sd_mmc_check+0x50>
	for (; i < EXT_CSD_BSIZE / 4; i++) {
  400878:	3501      	adds	r5, #1
  40087a:	b2ad      	uxth	r5, r5
  40087c:	e7a4      	b.n	4007c8 <sd_mmc_check+0x42c>
		arg = MMC_CMD6_ACCESS_SET_BITS
  40087e:	4938      	ldr	r1, [pc, #224]	; (400960 <sd_mmc_check+0x5c4>)
  400880:	e7b6      	b.n	4007f0 <sd_mmc_check+0x454>
		sd_mmc_configure_slot();
  400882:	4b33      	ldr	r3, [pc, #204]	; (400950 <sd_mmc_check+0x5b4>)
  400884:	4798      	blx	r3
  400886:	e7df      	b.n	400848 <sd_mmc_check+0x4ac>
  400888:	3d01      	subs	r5, #1
	while (retry--) {
  40088a:	f015 05ff 	ands.w	r5, r5, #255	; 0xff
  40088e:	f43f adad 	beq.w	4003ec <sd_mmc_check+0x50>
		if (driver_send_cmd(SDMMC_CMD16_SET_BLOCKLEN, SD_MMC_BLOCK_SIZE)) {
  400892:	4641      	mov	r1, r8
  400894:	4638      	mov	r0, r7
  400896:	47b0      	blx	r6
  400898:	2800      	cmp	r0, #0
  40089a:	d0f5      	beq.n	400888 <sd_mmc_check+0x4ec>
  40089c:	e10e      	b.n	400abc <sd_mmc_check+0x720>
	value = reg[((reg_size - pos + 7) / 8) - 1] >> (pos % 8);
  40089e:	7dd9      	ldrb	r1, [r3, #23]
		value |= (uint32_t)reg[((reg_size - pos + 7) / 8) - 2] << (8 - (pos % 8));
  4008a0:	7d98      	ldrb	r0, [r3, #22]
		value |= (uint32_t)reg[((reg_size - pos + 7) / 8) - 3] << (16 - (pos % 8));
  4008a2:	7d5a      	ldrb	r2, [r3, #21]
  4008a4:	0412      	lsls	r2, r2, #16
		value |= (uint32_t)reg[((reg_size - pos + 7) / 8) - 3] << (16 - (pos % 8));
  4008a6:	ea42 2200 	orr.w	r2, r2, r0, lsl #8
  4008aa:	430a      	orrs	r2, r1
	value &=  ((uint32_t)1 << size) - 1;
  4008ac:	f3c2 0215 	ubfx	r2, r2, #0, #22
				* 512;
  4008b0:	3201      	adds	r2, #1
  4008b2:	0252      	lsls	r2, r2, #9
		sd_mmc_card->capacity =
  4008b4:	605a      	str	r2, [r3, #4]
  4008b6:	e601      	b.n	4004bc <sd_mmc_check+0x120>
	if (!driver_send_cmd(SDMMC_CMD55_APP_CMD, (uint32_t)sd_mmc_card->rca << 16)) {
  4008b8:	8919      	ldrh	r1, [r3, #8]
  4008ba:	0409      	lsls	r1, r1, #16
  4008bc:	f241 1037 	movw	r0, #4407	; 0x1137
  4008c0:	4b16      	ldr	r3, [pc, #88]	; (40091c <sd_mmc_check+0x580>)
  4008c2:	4798      	blx	r3
  4008c4:	2800      	cmp	r0, #0
  4008c6:	f43f ad91 	beq.w	4003ec <sd_mmc_check+0x50>
	if (!driver_adtc_start(SD_ACMD51_SEND_SCR, 0,
  4008ca:	2301      	movs	r3, #1
  4008cc:	9300      	str	r3, [sp, #0]
  4008ce:	2208      	movs	r2, #8
  4008d0:	2100      	movs	r1, #0
  4008d2:	4824      	ldr	r0, [pc, #144]	; (400964 <sd_mmc_check+0x5c8>)
  4008d4:	4d17      	ldr	r5, [pc, #92]	; (400934 <sd_mmc_check+0x598>)
  4008d6:	47a8      	blx	r5
  4008d8:	2800      	cmp	r0, #0
  4008da:	f43f ad87 	beq.w	4003ec <sd_mmc_check+0x50>
	if (!driver_start_read_blocks(scr, 1)) {
  4008de:	2101      	movs	r1, #1
  4008e0:	a804      	add	r0, sp, #16
  4008e2:	4b21      	ldr	r3, [pc, #132]	; (400968 <sd_mmc_check+0x5cc>)
  4008e4:	4798      	blx	r3
  4008e6:	2800      	cmp	r0, #0
  4008e8:	f43f ad80 	beq.w	4003ec <sd_mmc_check+0x50>
	if (!driver_wait_end_of_read_blocks()) {
  4008ec:	4b1f      	ldr	r3, [pc, #124]	; (40096c <sd_mmc_check+0x5d0>)
  4008ee:	4798      	blx	r3
  4008f0:	2800      	cmp	r0, #0
  4008f2:	f43f ad7b 	beq.w	4003ec <sd_mmc_check+0x50>
	switch (SD_SCR_SD_SPEC(scr)) {
  4008f6:	f89d 3010 	ldrb.w	r3, [sp, #16]
  4008fa:	f003 030f 	and.w	r3, r3, #15
  4008fe:	2b01      	cmp	r3, #1
  400900:	d036      	beq.n	400970 <sd_mmc_check+0x5d4>
  400902:	b133      	cbz	r3, 400912 <sd_mmc_check+0x576>
  400904:	2b02      	cmp	r3, #2
  400906:	d038      	beq.n	40097a <sd_mmc_check+0x5de>
		sd_mmc_card->version = CARD_VER_SD_1_0;
  400908:	4b05      	ldr	r3, [pc, #20]	; (400920 <sd_mmc_check+0x584>)
  40090a:	681b      	ldr	r3, [r3, #0]
  40090c:	2210      	movs	r2, #16
  40090e:	731a      	strb	r2, [r3, #12]
  400910:	e5e5      	b.n	4004de <sd_mmc_check+0x142>
		sd_mmc_card->version = CARD_VER_SD_1_0;
  400912:	4b03      	ldr	r3, [pc, #12]	; (400920 <sd_mmc_check+0x584>)
  400914:	681b      	ldr	r3, [r3, #0]
  400916:	2210      	movs	r2, #16
  400918:	731a      	strb	r2, [r3, #12]
  40091a:	e5e0      	b.n	4004de <sd_mmc_check+0x142>
  40091c:	00401009 	.word	0x00401009
  400920:	20000450 	.word	0x20000450
  400924:	0040032d 	.word	0x0040032d
  400928:	00401c48 	.word	0x00401c48
  40092c:	00401c08 	.word	0x00401c08
  400930:	00081108 	.word	0x00081108
  400934:	00401071 	.word	0x00401071
  400938:	00401135 	.word	0x00401135
  40093c:	20000474 	.word	0x20000474
  400940:	00400f19 	.word	0x00400f19
  400944:	01b70000 	.word	0x01b70000
  400948:	01b70200 	.word	0x01b70200
  40094c:	00401035 	.word	0x00401035
  400950:	00400275 	.word	0x00400275
  400954:	00400f23 	.word	0x00400f23
  400958:	03b90100 	.word	0x03b90100
  40095c:	03197500 	.word	0x03197500
  400960:	01b70100 	.word	0x01b70100
  400964:	00081133 	.word	0x00081133
  400968:	004011a5 	.word	0x004011a5
  40096c:	00401209 	.word	0x00401209
		sd_mmc_card->version = CARD_VER_SD_1_10;
  400970:	4b98      	ldr	r3, [pc, #608]	; (400bd4 <sd_mmc_check+0x838>)
  400972:	681b      	ldr	r3, [r3, #0]
  400974:	221a      	movs	r2, #26
  400976:	731a      	strb	r2, [r3, #12]
  400978:	e5b1      	b.n	4004de <sd_mmc_check+0x142>
		if (SD_SCR_SD_SPEC3(scr) == SD_SCR_SD_SPEC_3_00) {
  40097a:	f89d 3012 	ldrb.w	r3, [sp, #18]
  40097e:	09db      	lsrs	r3, r3, #7
			sd_mmc_card->version = CARD_VER_SD_3_0;
  400980:	4b94      	ldr	r3, [pc, #592]	; (400bd4 <sd_mmc_check+0x838>)
  400982:	681b      	ldr	r3, [r3, #0]
  400984:	bf14      	ite	ne
  400986:	2230      	movne	r2, #48	; 0x30
			sd_mmc_card->version = CARD_VER_SD_2_0;
  400988:	2220      	moveq	r2, #32
  40098a:	731a      	strb	r2, [r3, #12]
  40098c:	e5a7      	b.n	4004de <sd_mmc_check+0x142>
		if (buf[1] == 0) {
  40098e:	f89d 3011 	ldrb.w	r3, [sp, #17]
  400992:	2b00      	cmp	r3, #0
  400994:	f43f ad2a 	beq.w	4003ec <sd_mmc_check+0x50>
		addr_new += buf[1]-1;
  400998:	3302      	adds	r3, #2
  40099a:	441e      	add	r6, r3
		if (addr_new > (addr_old + 256)) {
  40099c:	f509 7380 	add.w	r3, r9, #256	; 0x100
  4009a0:	429e      	cmp	r6, r3
  4009a2:	f63f ad23 	bhi.w	4003ec <sd_mmc_check+0x50>
	addr_new = addr_old;
  4009a6:	2500      	movs	r5, #0
			sdio_cmd52(SDIO_CMD52_READ_FLAG, SDIO_CIA, addr_new, 0, &buf[i]);
  4009a8:	ab04      	add	r3, sp, #16
  4009aa:	442b      	add	r3, r5
  4009ac:	9300      	str	r3, [sp, #0]
  4009ae:	4643      	mov	r3, r8
  4009b0:	1972      	adds	r2, r6, r5
  4009b2:	4641      	mov	r1, r8
  4009b4:	4640      	mov	r0, r8
  4009b6:	47b8      	blx	r7
  4009b8:	3501      	adds	r5, #1
		for(i=0; i<3; i++) {
  4009ba:	2d03      	cmp	r5, #3
  4009bc:	d1f4      	bne.n	4009a8 <sd_mmc_check+0x60c>
		if (buf[0] == SDIO_CISTPL_END) {
  4009be:	f89d 3010 	ldrb.w	r3, [sp, #16]
  4009c2:	2bff      	cmp	r3, #255	; 0xff
  4009c4:	f43f ad12 	beq.w	4003ec <sd_mmc_check+0x50>
		if (buf[0] == SDIO_CISTPL_FUNCE && buf[2] == 0x00) {
  4009c8:	2b22      	cmp	r3, #34	; 0x22
  4009ca:	d1e0      	bne.n	40098e <sd_mmc_check+0x5f2>
  4009cc:	f89d 3012 	ldrb.w	r3, [sp, #18]
  4009d0:	2b00      	cmp	r3, #0
  4009d2:	d1dc      	bne.n	40098e <sd_mmc_check+0x5f2>
  4009d4:	ad04      	add	r5, sp, #16
  4009d6:	f106 0906 	add.w	r9, r6, #6
		sdio_cmd52(SDIO_CMD52_READ_FLAG, SDIO_CIA, addr_new, 0, &buf[i]);
  4009da:	f04f 0800 	mov.w	r8, #0
  4009de:	4f7e      	ldr	r7, [pc, #504]	; (400bd8 <sd_mmc_check+0x83c>)
  4009e0:	9500      	str	r5, [sp, #0]
  4009e2:	4643      	mov	r3, r8
  4009e4:	4632      	mov	r2, r6
  4009e6:	4641      	mov	r1, r8
  4009e8:	4640      	mov	r0, r8
  4009ea:	47b8      	blx	r7
		addr_new++;
  4009ec:	3601      	adds	r6, #1
  4009ee:	3501      	adds	r5, #1
	for(i = 0; i < 6; i++) {
  4009f0:	454e      	cmp	r6, r9
  4009f2:	d1f5      	bne.n	4009e0 <sd_mmc_check+0x644>
	tplfe_max_tran_speed = buf[5];
  4009f4:	f89d 3015 	ldrb.w	r3, [sp, #21]
  4009f8:	2b32      	cmp	r3, #50	; 0x32
  4009fa:	bf28      	it	cs
  4009fc:	2332      	movcs	r3, #50	; 0x32
	sd_mmc_card->clock = unit * mul * 1000;
  4009fe:	4a75      	ldr	r2, [pc, #468]	; (400bd4 <sd_mmc_check+0x838>)
  400a00:	6812      	ldr	r2, [r2, #0]
	mul = sd_trans_multipliers[(tplfe_max_tran_speed >> 3) & 0xF];
  400a02:	f3c3 00c3 	ubfx	r0, r3, #3, #4
	unit = sd_mmc_trans_units[tplfe_max_tran_speed & 0x7];
  400a06:	f003 0307 	and.w	r3, r3, #7
	sd_mmc_card->clock = unit * mul * 1000;
  400a0a:	4974      	ldr	r1, [pc, #464]	; (400bdc <sd_mmc_check+0x840>)
  400a0c:	f851 1023 	ldr.w	r1, [r1, r3, lsl #2]
  400a10:	f44f 737a 	mov.w	r3, #1000	; 0x3e8
  400a14:	fb03 f301 	mul.w	r3, r3, r1
  400a18:	4971      	ldr	r1, [pc, #452]	; (400be0 <sd_mmc_check+0x844>)
  400a1a:	f851 1020 	ldr.w	r1, [r1, r0, lsl #2]
  400a1e:	fb03 f301 	mul.w	r3, r3, r1
  400a22:	6013      	str	r3, [r2, #0]
	if ((4 <= driver_get_bus_width(sd_mmc_slot_sel))) {
  400a24:	4b6f      	ldr	r3, [pc, #444]	; (400be4 <sd_mmc_check+0x848>)
  400a26:	7818      	ldrb	r0, [r3, #0]
  400a28:	4b6f      	ldr	r3, [pc, #444]	; (400be8 <sd_mmc_check+0x84c>)
  400a2a:	4798      	blx	r3
  400a2c:	2803      	cmp	r0, #3
  400a2e:	d922      	bls.n	400a76 <sd_mmc_check+0x6da>
		if (IS_SDIO()) {
  400a30:	4b68      	ldr	r3, [pc, #416]	; (400bd4 <sd_mmc_check+0x838>)
  400a32:	681b      	ldr	r3, [r3, #0]
  400a34:	7adb      	ldrb	r3, [r3, #11]
  400a36:	f013 0f04 	tst.w	r3, #4
  400a3a:	d146      	bne.n	400aca <sd_mmc_check+0x72e>
		if (sd_mmc_card->type & CARD_TYPE_SD) {
  400a3c:	4b65      	ldr	r3, [pc, #404]	; (400bd4 <sd_mmc_check+0x838>)
  400a3e:	681b      	ldr	r3, [r3, #0]
  400a40:	7ada      	ldrb	r2, [r3, #11]
  400a42:	f012 0f01 	tst.w	r2, #1
  400a46:	d014      	beq.n	400a72 <sd_mmc_check+0x6d6>
	if (!driver_send_cmd(SDMMC_CMD55_APP_CMD, (uint32_t)sd_mmc_card->rca << 16)) {
  400a48:	8919      	ldrh	r1, [r3, #8]
  400a4a:	0409      	lsls	r1, r1, #16
  400a4c:	f241 1037 	movw	r0, #4407	; 0x1137
  400a50:	4b66      	ldr	r3, [pc, #408]	; (400bec <sd_mmc_check+0x850>)
  400a52:	4798      	blx	r3
  400a54:	2800      	cmp	r0, #0
  400a56:	f43f acc9 	beq.w	4003ec <sd_mmc_check+0x50>
	if (!driver_send_cmd(SD_ACMD6_SET_BUS_WIDTH, 0x2)) {
  400a5a:	2102      	movs	r1, #2
  400a5c:	f241 1006 	movw	r0, #4358	; 0x1106
  400a60:	4b62      	ldr	r3, [pc, #392]	; (400bec <sd_mmc_check+0x850>)
  400a62:	4798      	blx	r3
  400a64:	2800      	cmp	r0, #0
  400a66:	f43f acc1 	beq.w	4003ec <sd_mmc_check+0x50>
	sd_mmc_card->bus_width = 4;
  400a6a:	4b5a      	ldr	r3, [pc, #360]	; (400bd4 <sd_mmc_check+0x838>)
  400a6c:	681b      	ldr	r3, [r3, #0]
  400a6e:	2204      	movs	r2, #4
  400a70:	735a      	strb	r2, [r3, #13]
		sd_mmc_configure_slot();
  400a72:	4b5f      	ldr	r3, [pc, #380]	; (400bf0 <sd_mmc_check+0x854>)
  400a74:	4798      	blx	r3
	if (driver_is_high_speed_capable()) {
  400a76:	4b5f      	ldr	r3, [pc, #380]	; (400bf4 <sd_mmc_check+0x858>)
  400a78:	4798      	blx	r3
  400a7a:	b180      	cbz	r0, 400a9e <sd_mmc_check+0x702>
		if (IS_SDIO()) {
  400a7c:	4b55      	ldr	r3, [pc, #340]	; (400bd4 <sd_mmc_check+0x838>)
  400a7e:	681b      	ldr	r3, [r3, #0]
  400a80:	7adb      	ldrb	r3, [r3, #11]
  400a82:	f013 0f04 	tst.w	r3, #4
  400a86:	d141      	bne.n	400b0c <sd_mmc_check+0x770>
		if (sd_mmc_card->type & CARD_TYPE_SD) {
  400a88:	4b52      	ldr	r3, [pc, #328]	; (400bd4 <sd_mmc_check+0x838>)
  400a8a:	681b      	ldr	r3, [r3, #0]
  400a8c:	7ada      	ldrb	r2, [r3, #11]
  400a8e:	f012 0f01 	tst.w	r2, #1
  400a92:	d002      	beq.n	400a9a <sd_mmc_check+0x6fe>
			if (sd_mmc_card->version > CARD_VER_SD_1_0) {
  400a94:	7b1b      	ldrb	r3, [r3, #12]
  400a96:	2b10      	cmp	r3, #16
  400a98:	d85d      	bhi.n	400b56 <sd_mmc_check+0x7ba>
		sd_mmc_configure_slot();
  400a9a:	4b55      	ldr	r3, [pc, #340]	; (400bf0 <sd_mmc_check+0x854>)
  400a9c:	4798      	blx	r3
	if (sd_mmc_card->type & CARD_TYPE_SD) {
  400a9e:	4b4d      	ldr	r3, [pc, #308]	; (400bd4 <sd_mmc_check+0x838>)
  400aa0:	681b      	ldr	r3, [r3, #0]
  400aa2:	7adb      	ldrb	r3, [r3, #11]
  400aa4:	f013 0f01 	tst.w	r3, #1
  400aa8:	d008      	beq.n	400abc <sd_mmc_check+0x720>
		if (!driver_send_cmd(SDMMC_CMD16_SET_BLOCKLEN, SD_MMC_BLOCK_SIZE)) {
  400aaa:	f44f 7100 	mov.w	r1, #512	; 0x200
  400aae:	f241 1010 	movw	r0, #4368	; 0x1110
  400ab2:	4b4e      	ldr	r3, [pc, #312]	; (400bec <sd_mmc_check+0x850>)
  400ab4:	4798      	blx	r3
	if (sd_mmc_is_spi()? sd_mmc_spi_card_init()
  400ab6:	2800      	cmp	r0, #0
  400ab8:	f43f ac98 	beq.w	4003ec <sd_mmc_check+0x50>
		sd_mmc_card->state = SD_MMC_CARD_STATE_READY;
  400abc:	4b45      	ldr	r3, [pc, #276]	; (400bd4 <sd_mmc_check+0x838>)
  400abe:	681b      	ldr	r3, [r3, #0]
  400ac0:	2200      	movs	r2, #0
  400ac2:	729a      	strb	r2, [r3, #10]
		sd_mmc_deselect_slot();
  400ac4:	4b4c      	ldr	r3, [pc, #304]	; (400bf8 <sd_mmc_check+0x85c>)
  400ac6:	4798      	blx	r3
		return SD_MMC_INIT_ONGOING;
  400ac8:	e472      	b.n	4003b0 <sd_mmc_check+0x14>
	if (!sdio_cmd52(SDIO_CMD52_READ_FLAG, SDIO_CIA, SDIO_CCCR_CAP,
  400aca:	ab04      	add	r3, sp, #16
  400acc:	9300      	str	r3, [sp, #0]
  400ace:	2300      	movs	r3, #0
  400ad0:	2208      	movs	r2, #8
  400ad2:	4619      	mov	r1, r3
  400ad4:	4618      	mov	r0, r3
  400ad6:	4d40      	ldr	r5, [pc, #256]	; (400bd8 <sd_mmc_check+0x83c>)
  400ad8:	47a8      	blx	r5
  400ada:	2800      	cmp	r0, #0
  400adc:	f43f ac86 	beq.w	4003ec <sd_mmc_check+0x50>
	if ((u8_value & SDIO_CAP_4BLS) != SDIO_CAP_4BLS) {
  400ae0:	f99d 3010 	ldrsb.w	r3, [sp, #16]
  400ae4:	2b00      	cmp	r3, #0
  400ae6:	daa9      	bge.n	400a3c <sd_mmc_check+0x6a0>
	u8_value = SDIO_BUSWIDTH_4B;
  400ae8:	ab14      	add	r3, sp, #80	; 0x50
  400aea:	2202      	movs	r2, #2
  400aec:	f803 2d40 	strb.w	r2, [r3, #-64]!
	if (!sdio_cmd52(SDIO_CMD52_WRITE_FLAG, SDIO_CIA, SDIO_CCCR_BUS_CTRL,
  400af0:	9300      	str	r3, [sp, #0]
  400af2:	2301      	movs	r3, #1
  400af4:	2207      	movs	r2, #7
  400af6:	2100      	movs	r1, #0
  400af8:	4618      	mov	r0, r3
  400afa:	47a8      	blx	r5
  400afc:	2800      	cmp	r0, #0
  400afe:	f43f ac75 	beq.w	4003ec <sd_mmc_check+0x50>
	sd_mmc_card->bus_width = 4;
  400b02:	4b34      	ldr	r3, [pc, #208]	; (400bd4 <sd_mmc_check+0x838>)
  400b04:	681b      	ldr	r3, [r3, #0]
  400b06:	2204      	movs	r2, #4
  400b08:	735a      	strb	r2, [r3, #13]
  400b0a:	e797      	b.n	400a3c <sd_mmc_check+0x6a0>
	if (!sdio_cmd52(SDIO_CMD52_READ_FLAG, SDIO_CIA, SDIO_CCCR_HS, 0, &u8_value)) {
  400b0c:	ab04      	add	r3, sp, #16
  400b0e:	9300      	str	r3, [sp, #0]
  400b10:	2300      	movs	r3, #0
  400b12:	2213      	movs	r2, #19
  400b14:	4619      	mov	r1, r3
  400b16:	4618      	mov	r0, r3
  400b18:	4d2f      	ldr	r5, [pc, #188]	; (400bd8 <sd_mmc_check+0x83c>)
  400b1a:	47a8      	blx	r5
  400b1c:	2800      	cmp	r0, #0
  400b1e:	f43f ac65 	beq.w	4003ec <sd_mmc_check+0x50>
	if ((u8_value & SDIO_SHS) != SDIO_SHS) {
  400b22:	f89d 3010 	ldrb.w	r3, [sp, #16]
  400b26:	f013 0f01 	tst.w	r3, #1
  400b2a:	d0ad      	beq.n	400a88 <sd_mmc_check+0x6ec>
	u8_value = SDIO_EHS;
  400b2c:	ab14      	add	r3, sp, #80	; 0x50
  400b2e:	2202      	movs	r2, #2
  400b30:	f803 2d40 	strb.w	r2, [r3, #-64]!
	if (!sdio_cmd52(SDIO_CMD52_WRITE_FLAG, SDIO_CIA, SDIO_CCCR_HS,
  400b34:	9300      	str	r3, [sp, #0]
  400b36:	2301      	movs	r3, #1
  400b38:	2213      	movs	r2, #19
  400b3a:	2100      	movs	r1, #0
  400b3c:	4618      	mov	r0, r3
  400b3e:	47a8      	blx	r5
  400b40:	2800      	cmp	r0, #0
  400b42:	f43f ac53 	beq.w	4003ec <sd_mmc_check+0x50>
	sd_mmc_card->high_speed = 1;
  400b46:	4b23      	ldr	r3, [pc, #140]	; (400bd4 <sd_mmc_check+0x838>)
  400b48:	681b      	ldr	r3, [r3, #0]
  400b4a:	2201      	movs	r2, #1
  400b4c:	779a      	strb	r2, [r3, #30]
	sd_mmc_card->clock *= 2;
  400b4e:	681a      	ldr	r2, [r3, #0]
  400b50:	0052      	lsls	r2, r2, #1
  400b52:	601a      	str	r2, [r3, #0]
  400b54:	e798      	b.n	400a88 <sd_mmc_check+0x6ec>
	uint8_t switch_status[SD_SW_STATUS_BSIZE] = {0};
  400b56:	2540      	movs	r5, #64	; 0x40
  400b58:	462a      	mov	r2, r5
  400b5a:	2100      	movs	r1, #0
  400b5c:	a804      	add	r0, sp, #16
  400b5e:	4b27      	ldr	r3, [pc, #156]	; (400bfc <sd_mmc_check+0x860>)
  400b60:	4798      	blx	r3
	if (!driver_adtc_start(SD_CMD6_SWITCH_FUNC,
  400b62:	2301      	movs	r3, #1
  400b64:	9300      	str	r3, [sp, #0]
  400b66:	462a      	mov	r2, r5
  400b68:	4925      	ldr	r1, [pc, #148]	; (400c00 <sd_mmc_check+0x864>)
  400b6a:	4826      	ldr	r0, [pc, #152]	; (400c04 <sd_mmc_check+0x868>)
  400b6c:	4d26      	ldr	r5, [pc, #152]	; (400c08 <sd_mmc_check+0x86c>)
  400b6e:	47a8      	blx	r5
  400b70:	2800      	cmp	r0, #0
  400b72:	f43f ac3b 	beq.w	4003ec <sd_mmc_check+0x50>
	if (!driver_start_read_blocks(switch_status, 1)) {
  400b76:	2101      	movs	r1, #1
  400b78:	a804      	add	r0, sp, #16
  400b7a:	4b24      	ldr	r3, [pc, #144]	; (400c0c <sd_mmc_check+0x870>)
  400b7c:	4798      	blx	r3
  400b7e:	2800      	cmp	r0, #0
  400b80:	f43f ac34 	beq.w	4003ec <sd_mmc_check+0x50>
	if (!driver_wait_end_of_read_blocks()) {
  400b84:	4b22      	ldr	r3, [pc, #136]	; (400c10 <sd_mmc_check+0x874>)
  400b86:	4798      	blx	r3
  400b88:	2800      	cmp	r0, #0
  400b8a:	f43f ac2f 	beq.w	4003ec <sd_mmc_check+0x50>
	if (driver_get_response() & CARD_STATUS_SWITCH_ERROR) {
  400b8e:	4b21      	ldr	r3, [pc, #132]	; (400c14 <sd_mmc_check+0x878>)
  400b90:	4798      	blx	r3
  400b92:	f010 0f80 	tst.w	r0, #128	; 0x80
  400b96:	f47f ac29 	bne.w	4003ec <sd_mmc_check+0x50>
	if (SD_SW_STATUS_FUN_GRP1_RC(switch_status)
  400b9a:	f89d 3020 	ldrb.w	r3, [sp, #32]
  400b9e:	f003 030f 	and.w	r3, r3, #15
  400ba2:	2b0f      	cmp	r3, #15
  400ba4:	f43f af79 	beq.w	400a9a <sd_mmc_check+0x6fe>
	value = reg[((reg_size - pos + 7) / 8) - 1] >> (pos % 8);
  400ba8:	f89d 302d 	ldrb.w	r3, [sp, #45]	; 0x2d
		value |= (uint32_t)reg[((reg_size - pos + 7) / 8) - 2] << (8 - (pos % 8));
  400bac:	f89d 202c 	ldrb.w	r2, [sp, #44]	; 0x2c
	if (SD_SW_STATUS_FUN_GRP1_BUSY(switch_status)) {
  400bb0:	ea53 2302 	orrs.w	r3, r3, r2, lsl #8
  400bb4:	f47f ac1a 	bne.w	4003ec <sd_mmc_check+0x50>
	driver_send_clock();
  400bb8:	4b17      	ldr	r3, [pc, #92]	; (400c18 <sd_mmc_check+0x87c>)
  400bba:	4798      	blx	r3
	sd_mmc_card->high_speed = 1;
  400bbc:	4b05      	ldr	r3, [pc, #20]	; (400bd4 <sd_mmc_check+0x838>)
  400bbe:	681b      	ldr	r3, [r3, #0]
  400bc0:	2201      	movs	r2, #1
  400bc2:	779a      	strb	r2, [r3, #30]
	sd_mmc_card->clock *= 2;
  400bc4:	681a      	ldr	r2, [r3, #0]
  400bc6:	0052      	lsls	r2, r2, #1
  400bc8:	601a      	str	r2, [r3, #0]
  400bca:	e766      	b.n	400a9a <sd_mmc_check+0x6fe>
	*v2 = 0;
  400bcc:	f04f 0900 	mov.w	r9, #0
  400bd0:	e41e      	b.n	400410 <sd_mmc_check+0x74>
  400bd2:	bf00      	nop
  400bd4:	20000450 	.word	0x20000450
  400bd8:	004002f5 	.word	0x004002f5
  400bdc:	00401c48 	.word	0x00401c48
  400be0:	00401c64 	.word	0x00401c64
  400be4:	20000474 	.word	0x20000474
  400be8:	00400f19 	.word	0x00400f19
  400bec:	00401009 	.word	0x00401009
  400bf0:	00400275 	.word	0x00400275
  400bf4:	00400f23 	.word	0x00400f23
  400bf8:	00400361 	.word	0x00400361
  400bfc:	00401a4d 	.word	0x00401a4d
  400c00:	80ffff01 	.word	0x80ffff01
  400c04:	00081106 	.word	0x00081106
  400c08:	00401071 	.word	0x00401071
  400c0c:	004011a5 	.word	0x004011a5
  400c10:	00401209 	.word	0x00401209
  400c14:	00401035 	.word	0x00401035
  400c18:	00400fe5 	.word	0x00400fe5

00400c1c <sd_mmc_get_type>:

card_type_t sd_mmc_get_type(uint8_t slot)
{
  400c1c:	b508      	push	{r3, lr}
	if (SD_MMC_OK != sd_mmc_select_slot(slot)) {
  400c1e:	4b05      	ldr	r3, [pc, #20]	; (400c34 <sd_mmc_get_type+0x18>)
  400c20:	4798      	blx	r3
  400c22:	b108      	cbz	r0, 400c28 <sd_mmc_get_type+0xc>
		return CARD_TYPE_UNKNOWN;
  400c24:	2000      	movs	r0, #0
	}
	sd_mmc_deselect_slot();
	return sd_mmc_card->type;
}
  400c26:	bd08      	pop	{r3, pc}
	sd_mmc_deselect_slot();
  400c28:	4b03      	ldr	r3, [pc, #12]	; (400c38 <sd_mmc_get_type+0x1c>)
  400c2a:	4798      	blx	r3
	return sd_mmc_card->type;
  400c2c:	4b03      	ldr	r3, [pc, #12]	; (400c3c <sd_mmc_get_type+0x20>)
  400c2e:	681b      	ldr	r3, [r3, #0]
  400c30:	7ad8      	ldrb	r0, [r3, #11]
  400c32:	bd08      	pop	{r3, pc}
  400c34:	0040029d 	.word	0x0040029d
  400c38:	00400361 	.word	0x00400361
  400c3c:	20000450 	.word	0x20000450

00400c40 <sd_mmc_test_unit_ready>:
 */

static bool sd_mmc_ejected[2] = {false, false};

Ctrl_status sd_mmc_test_unit_ready(uint8_t slot)
{
  400c40:	b510      	push	{r4, lr}
  400c42:	4604      	mov	r4, r0
	switch (sd_mmc_check(slot))
  400c44:	4b0f      	ldr	r3, [pc, #60]	; (400c84 <sd_mmc_test_unit_ready+0x44>)
  400c46:	4798      	blx	r3
  400c48:	2801      	cmp	r0, #1
  400c4a:	d018      	beq.n	400c7e <sd_mmc_test_unit_ready+0x3e>
  400c4c:	b118      	cbz	r0, 400c56 <sd_mmc_test_unit_ready+0x16>
  400c4e:	2802      	cmp	r0, #2
  400c50:	d010      	beq.n	400c74 <sd_mmc_test_unit_ready+0x34>
	case SD_MMC_ERR_NO_CARD:
		sd_mmc_ejected[slot] = false;
		return CTRL_NO_PRESENT;

	default:
		return CTRL_FAIL;
  400c52:	2001      	movs	r0, #1
  400c54:	bd10      	pop	{r4, pc}
		if (sd_mmc_ejected[slot]) {
  400c56:	4b0c      	ldr	r3, [pc, #48]	; (400c88 <sd_mmc_test_unit_ready+0x48>)
  400c58:	5d1b      	ldrb	r3, [r3, r4]
  400c5a:	b10b      	cbz	r3, 400c60 <sd_mmc_test_unit_ready+0x20>
			return CTRL_NO_PRESENT;
  400c5c:	2002      	movs	r0, #2
	}
}
  400c5e:	bd10      	pop	{r4, pc}
		if (sd_mmc_get_type(slot) & (CARD_TYPE_SD | CARD_TYPE_MMC)) {
  400c60:	4620      	mov	r0, r4
  400c62:	4b0a      	ldr	r3, [pc, #40]	; (400c8c <sd_mmc_test_unit_ready+0x4c>)
  400c64:	4798      	blx	r3
  400c66:	f000 0003 	and.w	r0, r0, #3
		return CTRL_NO_PRESENT;
  400c6a:	2800      	cmp	r0, #0
  400c6c:	bf14      	ite	ne
  400c6e:	2000      	movne	r0, #0
  400c70:	2002      	moveq	r0, #2
  400c72:	bd10      	pop	{r4, pc}
		sd_mmc_ejected[slot] = false;
  400c74:	2200      	movs	r2, #0
  400c76:	4b04      	ldr	r3, [pc, #16]	; (400c88 <sd_mmc_test_unit_ready+0x48>)
  400c78:	551a      	strb	r2, [r3, r4]
		return CTRL_NO_PRESENT;
  400c7a:	2002      	movs	r0, #2
  400c7c:	bd10      	pop	{r4, pc}
		return CTRL_BUSY;
  400c7e:	2003      	movs	r0, #3
  400c80:	bd10      	pop	{r4, pc}
  400c82:	bf00      	nop
  400c84:	0040039d 	.word	0x0040039d
  400c88:	20000478 	.word	0x20000478
  400c8c:	00400c1d 	.word	0x00400c1d

00400c90 <board_init>:
		ioport_set_pin_mode(pin, mode);\
		ioport_set_pin_sense_mode(pin, sense);\
	} while (0)

void board_init(void)
{
  400c90:	b538      	push	{r3, r4, r5, lr}
#ifndef CONF_BOARD_KEEP_WATCHDOG_AT_INIT
	/* Disable the watchdog */
	WDT->WDT_MR = WDT_MR_WDDIS;
  400c92:	f44f 4400 	mov.w	r4, #32768	; 0x8000
  400c96:	4b60      	ldr	r3, [pc, #384]	; (400e18 <board_init+0x188>)
  400c98:	605c      	str	r4, [r3, #4]
  400c9a:	2009      	movs	r0, #9
  400c9c:	4d5f      	ldr	r5, [pc, #380]	; (400e1c <board_init+0x18c>)
  400c9e:	47a8      	blx	r5
  400ca0:	200a      	movs	r0, #10
  400ca2:	47a8      	blx	r5
  400ca4:	200b      	movs	r0, #11
  400ca6:	47a8      	blx	r5
  400ca8:	200c      	movs	r0, #12
  400caa:	47a8      	blx	r5
  400cac:	200d      	movs	r0, #13
  400cae:	47a8      	blx	r5
		enum ioport_direction dir)
{
	Pio *base = arch_ioport_pin_to_base(pin);

	if (dir == IOPORT_DIR_OUTPUT) {
		base->PIO_OER = arch_ioport_pin_to_mask(pin);
  400cb0:	4b5b      	ldr	r3, [pc, #364]	; (400e20 <board_init+0x190>)
  400cb2:	f44f 0280 	mov.w	r2, #4194304	; 0x400000
  400cb6:	611a      	str	r2, [r3, #16]
	} else if (dir == IOPORT_DIR_INPUT) {
		base->PIO_ODR = arch_ioport_pin_to_mask(pin);
	}

	base->PIO_OWER = arch_ioport_pin_to_mask(pin);
  400cb8:	f8c3 20a0 	str.w	r2, [r3, #160]	; 0xa0
		bool level)
{
	Pio *base = arch_ioport_pin_to_base(pin);

	if (level) {
		base->PIO_SODR = arch_ioport_pin_to_mask(pin);
  400cbc:	631a      	str	r2, [r3, #48]	; 0x30
		base->PIO_ODR = arch_ioport_pin_to_mask(pin);
  400cbe:	f5a3 63c0 	sub.w	r3, r3, #1536	; 0x600
  400cc2:	2104      	movs	r1, #4
  400cc4:	6159      	str	r1, [r3, #20]
	base->PIO_OWER = arch_ioport_pin_to_mask(pin);
  400cc6:	f8c3 10a0 	str.w	r1, [r3, #160]	; 0xa0
		base->PIO_PUER = mask;
  400cca:	6659      	str	r1, [r3, #100]	; 0x64
		base->PIO_PPDDR = mask;
  400ccc:	f8c3 1090 	str.w	r1, [r3, #144]	; 0x90
		base->PIO_MDDR = mask;
  400cd0:	6559      	str	r1, [r3, #84]	; 0x54
		base->PIO_IFER = mask;
  400cd2:	6219      	str	r1, [r3, #32]
		base->PIO_IFSCER = mask;
  400cd4:	f8c3 1084 	str.w	r1, [r3, #132]	; 0x84
		base->PIO_ABCDSR[0] &= ~mask;
  400cd8:	6f1a      	ldr	r2, [r3, #112]	; 0x70
  400cda:	f022 0204 	bic.w	r2, r2, #4
  400cde:	671a      	str	r2, [r3, #112]	; 0x70
		base->PIO_ABCDSR[1] &= ~mask;
  400ce0:	6f5a      	ldr	r2, [r3, #116]	; 0x74
  400ce2:	f022 0204 	bic.w	r2, r2, #4
  400ce6:	675a      	str	r2, [r3, #116]	; 0x74
	case IOPORT_SENSE_FALLING:
		base->PIO_ESR = mask;
		base->PIO_FELLSR = mask;
		break;
	case IOPORT_SENSE_RISING:
		base->PIO_ESR = mask;
  400ce8:	f8c3 10c0 	str.w	r1, [r3, #192]	; 0xc0
		base->PIO_REHLSR = mask;
  400cec:	f8c3 10d4 	str.w	r1, [r3, #212]	; 0xd4
		break;
	default:
		base->PIO_AIMDR = mask;
		return;
	}
	base->PIO_AIMER = mask;
  400cf0:	f8c3 10b0 	str.w	r1, [r3, #176]	; 0xb0
		base->PIO_PUDR = mask;
  400cf4:	4a4b      	ldr	r2, [pc, #300]	; (400e24 <board_init+0x194>)
  400cf6:	f44f 5080 	mov.w	r0, #4096	; 0x1000
  400cfa:	6610      	str	r0, [r2, #96]	; 0x60
		base->PIO_PPDDR = mask;
  400cfc:	f8c2 0090 	str.w	r0, [r2, #144]	; 0x90
		base->PIO_MDDR = mask;
  400d00:	6550      	str	r0, [r2, #84]	; 0x54
		base->PIO_IFDR = mask;
  400d02:	6250      	str	r0, [r2, #36]	; 0x24
		base->PIO_IFSCDR = mask;
  400d04:	f8c2 0080 	str.w	r0, [r2, #128]	; 0x80
		base->PIO_ABCDSR[0] &= ~mask;
  400d08:	6f15      	ldr	r5, [r2, #112]	; 0x70
  400d0a:	f425 5580 	bic.w	r5, r5, #4096	; 0x1000
  400d0e:	6715      	str	r5, [r2, #112]	; 0x70
		base->PIO_ABCDSR[1] |= mask;
  400d10:	6f55      	ldr	r5, [r2, #116]	; 0x74
  400d12:	4305      	orrs	r5, r0
  400d14:	6755      	str	r5, [r2, #116]	; 0x74
	arch_ioport_port_to_base(port)->PIO_PDR = mask;
  400d16:	6050      	str	r0, [r2, #4]
		base->PIO_PUDR = mask;
  400d18:	6614      	str	r4, [r2, #96]	; 0x60
		base->PIO_PPDDR = mask;
  400d1a:	f8c2 4090 	str.w	r4, [r2, #144]	; 0x90
		base->PIO_MDDR = mask;
  400d1e:	6554      	str	r4, [r2, #84]	; 0x54
		base->PIO_IFDR = mask;
  400d20:	6254      	str	r4, [r2, #36]	; 0x24
		base->PIO_IFSCDR = mask;
  400d22:	f8c2 4080 	str.w	r4, [r2, #128]	; 0x80
		base->PIO_ABCDSR[0] &= ~mask;
  400d26:	6f10      	ldr	r0, [r2, #112]	; 0x70
  400d28:	f420 4000 	bic.w	r0, r0, #32768	; 0x8000
  400d2c:	6710      	str	r0, [r2, #112]	; 0x70
		base->PIO_ABCDSR[1] |= mask;
  400d2e:	6f50      	ldr	r0, [r2, #116]	; 0x74
  400d30:	4320      	orrs	r0, r4
  400d32:	6750      	str	r0, [r2, #116]	; 0x74
	arch_ioport_port_to_base(port)->PIO_PDR = mask;
  400d34:	6054      	str	r4, [r2, #4]
		base->PIO_OER = arch_ioport_pin_to_mask(pin);
  400d36:	f502 6280 	add.w	r2, r2, #1024	; 0x400
  400d3a:	6111      	str	r1, [r2, #16]
	base->PIO_OWER = arch_ioport_pin_to_mask(pin);
  400d3c:	f8c2 10a0 	str.w	r1, [r2, #160]	; 0xa0
		base->PIO_OER = arch_ioport_pin_to_mask(pin);
  400d40:	2108      	movs	r1, #8
  400d42:	6111      	str	r1, [r2, #16]
	base->PIO_OWER = arch_ioport_pin_to_mask(pin);
  400d44:	f8c2 10a0 	str.w	r1, [r2, #160]	; 0xa0
		base->PIO_PUDR = mask;
  400d48:	f04f 5280 	mov.w	r2, #268435456	; 0x10000000
  400d4c:	661a      	str	r2, [r3, #96]	; 0x60
		base->PIO_PPDDR = mask;
  400d4e:	f8c3 2090 	str.w	r2, [r3, #144]	; 0x90
		base->PIO_MDDR = mask;
  400d52:	655a      	str	r2, [r3, #84]	; 0x54
		base->PIO_IFDR = mask;
  400d54:	625a      	str	r2, [r3, #36]	; 0x24
		base->PIO_IFSCDR = mask;
  400d56:	f8c3 2080 	str.w	r2, [r3, #128]	; 0x80
		base->PIO_ABCDSR[0] &= ~mask;
  400d5a:	6f19      	ldr	r1, [r3, #112]	; 0x70
  400d5c:	f021 5180 	bic.w	r1, r1, #268435456	; 0x10000000
  400d60:	6719      	str	r1, [r3, #112]	; 0x70
		base->PIO_ABCDSR[1] |= mask;
  400d62:	6f59      	ldr	r1, [r3, #116]	; 0x74
  400d64:	4311      	orrs	r1, r2
  400d66:	6759      	str	r1, [r3, #116]	; 0x74
	arch_ioport_port_to_base(port)->PIO_PDR = mask;
  400d68:	605a      	str	r2, [r3, #4]
		base->PIO_PUDR = mask;
  400d6a:	f04f 5200 	mov.w	r2, #536870912	; 0x20000000
  400d6e:	661a      	str	r2, [r3, #96]	; 0x60
		base->PIO_PPDDR = mask;
  400d70:	f8c3 2090 	str.w	r2, [r3, #144]	; 0x90
		base->PIO_MDDR = mask;
  400d74:	655a      	str	r2, [r3, #84]	; 0x54
		base->PIO_IFDR = mask;
  400d76:	625a      	str	r2, [r3, #36]	; 0x24
		base->PIO_IFSCDR = mask;
  400d78:	f8c3 2080 	str.w	r2, [r3, #128]	; 0x80
		base->PIO_ABCDSR[0] &= ~mask;
  400d7c:	6f19      	ldr	r1, [r3, #112]	; 0x70
  400d7e:	f021 5100 	bic.w	r1, r1, #536870912	; 0x20000000
  400d82:	6719      	str	r1, [r3, #112]	; 0x70
		base->PIO_ABCDSR[1] |= mask;
  400d84:	6f59      	ldr	r1, [r3, #116]	; 0x74
  400d86:	4311      	orrs	r1, r2
  400d88:	6759      	str	r1, [r3, #116]	; 0x74
	arch_ioport_port_to_base(port)->PIO_PDR = mask;
  400d8a:	605a      	str	r2, [r3, #4]
		base->PIO_PUDR = mask;
  400d8c:	f04f 4280 	mov.w	r2, #1073741824	; 0x40000000
  400d90:	661a      	str	r2, [r3, #96]	; 0x60
		base->PIO_PPDDR = mask;
  400d92:	f8c3 2090 	str.w	r2, [r3, #144]	; 0x90
		base->PIO_MDDR = mask;
  400d96:	655a      	str	r2, [r3, #84]	; 0x54
		base->PIO_IFDR = mask;
  400d98:	625a      	str	r2, [r3, #36]	; 0x24
		base->PIO_IFSCDR = mask;
  400d9a:	f8c3 2080 	str.w	r2, [r3, #128]	; 0x80
		base->PIO_ABCDSR[0] &= ~mask;
  400d9e:	6f19      	ldr	r1, [r3, #112]	; 0x70
  400da0:	f021 4180 	bic.w	r1, r1, #1073741824	; 0x40000000
  400da4:	6719      	str	r1, [r3, #112]	; 0x70
		base->PIO_ABCDSR[1] |= mask;
  400da6:	6f59      	ldr	r1, [r3, #116]	; 0x74
  400da8:	4311      	orrs	r1, r2
  400daa:	6759      	str	r1, [r3, #116]	; 0x74
	arch_ioport_port_to_base(port)->PIO_PDR = mask;
  400dac:	605a      	str	r2, [r3, #4]
		base->PIO_PUDR = mask;
  400dae:	f04f 4200 	mov.w	r2, #2147483648	; 0x80000000
  400db2:	661a      	str	r2, [r3, #96]	; 0x60
		base->PIO_PPDDR = mask;
  400db4:	f8c3 2090 	str.w	r2, [r3, #144]	; 0x90
		base->PIO_MDDR = mask;
  400db8:	655a      	str	r2, [r3, #84]	; 0x54
		base->PIO_IFDR = mask;
  400dba:	625a      	str	r2, [r3, #36]	; 0x24
		base->PIO_IFSCDR = mask;
  400dbc:	f8c3 2080 	str.w	r2, [r3, #128]	; 0x80
		base->PIO_ABCDSR[0] &= ~mask;
  400dc0:	6f19      	ldr	r1, [r3, #112]	; 0x70
  400dc2:	f021 4100 	bic.w	r1, r1, #2147483648	; 0x80000000
  400dc6:	6719      	str	r1, [r3, #112]	; 0x70
		base->PIO_ABCDSR[1] |= mask;
  400dc8:	6f59      	ldr	r1, [r3, #116]	; 0x74
  400dca:	4311      	orrs	r1, r2
  400dcc:	6759      	str	r1, [r3, #116]	; 0x74
	arch_ioport_port_to_base(port)->PIO_PDR = mask;
  400dce:	605a      	str	r2, [r3, #4]
		base->PIO_PUDR = mask;
  400dd0:	f04f 6280 	mov.w	r2, #67108864	; 0x4000000
  400dd4:	661a      	str	r2, [r3, #96]	; 0x60
		base->PIO_PPDDR = mask;
  400dd6:	f8c3 2090 	str.w	r2, [r3, #144]	; 0x90
		base->PIO_MDDR = mask;
  400dda:	655a      	str	r2, [r3, #84]	; 0x54
		base->PIO_IFDR = mask;
  400ddc:	625a      	str	r2, [r3, #36]	; 0x24
		base->PIO_IFSCDR = mask;
  400dde:	f8c3 2080 	str.w	r2, [r3, #128]	; 0x80
		base->PIO_ABCDSR[0] &= ~mask;
  400de2:	6f19      	ldr	r1, [r3, #112]	; 0x70
  400de4:	f021 6180 	bic.w	r1, r1, #67108864	; 0x4000000
  400de8:	6719      	str	r1, [r3, #112]	; 0x70
		base->PIO_ABCDSR[1] |= mask;
  400dea:	6f59      	ldr	r1, [r3, #116]	; 0x74
  400dec:	4311      	orrs	r1, r2
  400dee:	6759      	str	r1, [r3, #116]	; 0x74
	arch_ioport_port_to_base(port)->PIO_PDR = mask;
  400df0:	605a      	str	r2, [r3, #4]
		base->PIO_PUDR = mask;
  400df2:	f04f 6200 	mov.w	r2, #134217728	; 0x8000000
  400df6:	661a      	str	r2, [r3, #96]	; 0x60
		base->PIO_PPDDR = mask;
  400df8:	f8c3 2090 	str.w	r2, [r3, #144]	; 0x90
		base->PIO_MDDR = mask;
  400dfc:	655a      	str	r2, [r3, #84]	; 0x54
		base->PIO_IFDR = mask;
  400dfe:	625a      	str	r2, [r3, #36]	; 0x24
		base->PIO_IFSCDR = mask;
  400e00:	f8c3 2080 	str.w	r2, [r3, #128]	; 0x80
		base->PIO_ABCDSR[0] &= ~mask;
  400e04:	6f19      	ldr	r1, [r3, #112]	; 0x70
  400e06:	f021 6100 	bic.w	r1, r1, #134217728	; 0x8000000
  400e0a:	6719      	str	r1, [r3, #112]	; 0x70
		base->PIO_ABCDSR[1] |= mask;
  400e0c:	6f59      	ldr	r1, [r3, #116]	; 0x74
  400e0e:	4311      	orrs	r1, r2
  400e10:	6759      	str	r1, [r3, #116]	; 0x74
	arch_ioport_port_to_base(port)->PIO_PDR = mask;
  400e12:	605a      	str	r2, [r3, #4]
  400e14:	bd38      	pop	{r3, r4, r5, pc}
  400e16:	bf00      	nop
  400e18:	400e1850 	.word	0x400e1850
  400e1c:	004019a9 	.word	0x004019a9
  400e20:	400e1400 	.word	0x400e1400
  400e24:	400e1200 	.word	0x400e1200

00400e28 <hsmci_reset>:

/**
 * \brief Reset the HSMCI interface
 */
static void hsmci_reset(void)
{
  400e28:	b470      	push	{r4, r5, r6}
	uint32_t mr = HSMCI->HSMCI_MR;
  400e2a:	4b08      	ldr	r3, [pc, #32]	; (400e4c <hsmci_reset+0x24>)
  400e2c:	685d      	ldr	r5, [r3, #4]
	uint32_t dtor = HSMCI->HSMCI_DTOR;
  400e2e:	689c      	ldr	r4, [r3, #8]
	uint32_t sdcr = HSMCI->HSMCI_SDCR;
  400e30:	68d8      	ldr	r0, [r3, #12]
	uint32_t cstor = HSMCI->HSMCI_CSTOR;
  400e32:	69d9      	ldr	r1, [r3, #28]
	uint32_t cfg = HSMCI->HSMCI_CFG;
  400e34:	6d5a      	ldr	r2, [r3, #84]	; 0x54
	HSMCI->HSMCI_CR = HSMCI_CR_SWRST;
  400e36:	2680      	movs	r6, #128	; 0x80
  400e38:	601e      	str	r6, [r3, #0]
	HSMCI->HSMCI_MR = mr;
  400e3a:	605d      	str	r5, [r3, #4]
	HSMCI->HSMCI_DTOR = dtor;
  400e3c:	609c      	str	r4, [r3, #8]
	HSMCI->HSMCI_SDCR = sdcr;
  400e3e:	60d8      	str	r0, [r3, #12]
	HSMCI->HSMCI_CSTOR = cstor;
  400e40:	61d9      	str	r1, [r3, #28]
	HSMCI->HSMCI_CFG = cfg;
  400e42:	655a      	str	r2, [r3, #84]	; 0x54
#ifdef HSMCI_DMA_DMAEN
	HSMCI->HSMCI_DMA = 0;
#endif
#endif
	// Enable the HSMCI
	HSMCI->HSMCI_CR = HSMCI_CR_PWSEN | HSMCI_CR_MCIEN;
  400e44:	2205      	movs	r2, #5
  400e46:	601a      	str	r2, [r3, #0]
}
  400e48:	bc70      	pop	{r4, r5, r6}
  400e4a:	4770      	bx	lr
  400e4c:	40080000 	.word	0x40080000

00400e50 <hsmci_send_cmd_execute>:
 *
 * \return true if success, otherwise false
 */
static bool hsmci_send_cmd_execute(uint32_t cmdr, sdmmc_cmd_def_t cmd,
		uint32_t arg)
{
  400e50:	b508      	push	{r3, lr}
	uint32_t sr;

	cmdr |= HSMCI_CMDR_CMDNB(cmd) | HSMCI_CMDR_SPCMD_STD;
  400e52:	f001 033f 	and.w	r3, r1, #63	; 0x3f
  400e56:	4318      	orrs	r0, r3
	if (cmd & SDMMC_RESP_PRESENT) {
  400e58:	f411 7f80 	tst.w	r1, #256	; 0x100
  400e5c:	d004      	beq.n	400e68 <hsmci_send_cmd_execute+0x18>
		cmdr |= HSMCI_CMDR_MAXLAT;
		if (cmd & SDMMC_RESP_136) {
  400e5e:	f411 6f00 	tst.w	r1, #2048	; 0x800
  400e62:	d00d      	beq.n	400e80 <hsmci_send_cmd_execute+0x30>
			cmdr |= HSMCI_CMDR_RSPTYP_136_BIT;
  400e64:	f440 5084 	orr.w	r0, r0, #4224	; 0x1080
			cmdr |= HSMCI_CMDR_RSPTYP_R1B;
		} else {
			cmdr |= HSMCI_CMDR_RSPTYP_48_BIT;
		}
	}
	if (cmd & SDMMC_CMD_OPENDRAIN) {
  400e68:	f411 4f80 	tst.w	r1, #16384	; 0x4000
		cmdr |= HSMCI_CMDR_OPDCMD_OPENDRAIN;
  400e6c:	bf18      	it	ne
  400e6e:	f440 6000 	orrne.w	r0, r0, #2048	; 0x800
	}

	// Write argument
	HSMCI->HSMCI_ARGR = arg;
  400e72:	4b1d      	ldr	r3, [pc, #116]	; (400ee8 <hsmci_send_cmd_execute+0x98>)
  400e74:	611a      	str	r2, [r3, #16]
	// Write and start command
	HSMCI->HSMCI_CMDR = cmdr;
  400e76:	6158      	str	r0, [r3, #20]

	// Wait end of command
	do {
		sr = HSMCI->HSMCI_SR;
  400e78:	4618      	mov	r0, r3
		if (cmd & SDMMC_RESP_CRC) {
  400e7a:	f401 5280 	and.w	r2, r1, #4096	; 0x1000
  400e7e:	e00d      	b.n	400e9c <hsmci_send_cmd_execute+0x4c>
		} else if (cmd & SDMMC_RESP_BUSY) {
  400e80:	f411 5f00 	tst.w	r1, #8192	; 0x2000
			cmdr |= HSMCI_CMDR_RSPTYP_R1B;
  400e84:	bf14      	ite	ne
  400e86:	f440 5086 	orrne.w	r0, r0, #4288	; 0x10c0
			cmdr |= HSMCI_CMDR_RSPTYP_48_BIT;
  400e8a:	f440 5082 	orreq.w	r0, r0, #4160	; 0x1040
  400e8e:	e7eb      	b.n	400e68 <hsmci_send_cmd_execute+0x18>
						__func__, cmd, sr);
				hsmci_reset();
				return false;
			}
		} else {
			if (sr & (HSMCI_SR_CSTOE | HSMCI_SR_RTOE
  400e90:	f413 0f1b 	tst.w	r3, #10158080	; 0x9b0000
  400e94:	d10c      	bne.n	400eb0 <hsmci_send_cmd_execute+0x60>
						__func__, cmd, sr);
				hsmci_reset();
				return false;
			}
		}
	} while (!(sr & HSMCI_SR_CMDRDY));
  400e96:	f013 0f01 	tst.w	r3, #1
  400e9a:	d10d      	bne.n	400eb8 <hsmci_send_cmd_execute+0x68>
		sr = HSMCI->HSMCI_SR;
  400e9c:	6c03      	ldr	r3, [r0, #64]	; 0x40
		if (cmd & SDMMC_RESP_CRC) {
  400e9e:	2a00      	cmp	r2, #0
  400ea0:	d0f6      	beq.n	400e90 <hsmci_send_cmd_execute+0x40>
			if (sr & (HSMCI_SR_CSTOE | HSMCI_SR_RTOE
  400ea2:	f413 0f1f 	tst.w	r3, #10420224	; 0x9f0000
  400ea6:	d0f6      	beq.n	400e96 <hsmci_send_cmd_execute+0x46>
				hsmci_reset();
  400ea8:	4b10      	ldr	r3, [pc, #64]	; (400eec <hsmci_send_cmd_execute+0x9c>)
  400eaa:	4798      	blx	r3
				return false;
  400eac:	2000      	movs	r0, #0
  400eae:	bd08      	pop	{r3, pc}
				hsmci_reset();
  400eb0:	4b0e      	ldr	r3, [pc, #56]	; (400eec <hsmci_send_cmd_execute+0x9c>)
  400eb2:	4798      	blx	r3
				return false;
  400eb4:	2000      	movs	r0, #0
  400eb6:	bd08      	pop	{r3, pc}

	if (cmd & SDMMC_RESP_BUSY) {
  400eb8:	f411 5f00 	tst.w	r1, #8192	; 0x2000
  400ebc:	d103      	bne.n	400ec6 <hsmci_send_cmd_execute+0x76>
		if (!hsmci_wait_busy()) {
			return false;
		}
	}
	return true;
  400ebe:	2001      	movs	r0, #1
  400ec0:	bd08      	pop	{r3, pc}
	return true;
  400ec2:	2001      	movs	r0, #1
  400ec4:	bd08      	pop	{r3, pc}
		sr = HSMCI->HSMCI_SR;
  400ec6:	4b08      	ldr	r3, [pc, #32]	; (400ee8 <hsmci_send_cmd_execute+0x98>)
  400ec8:	6c1b      	ldr	r3, [r3, #64]	; 0x40
  400eca:	f04f 32ff 	mov.w	r2, #4294967295
  400ece:	4906      	ldr	r1, [pc, #24]	; (400ee8 <hsmci_send_cmd_execute+0x98>)
	} while (!((sr & HSMCI_SR_NOTBUSY) && ((sr & HSMCI_SR_DTIP) == 0)));
  400ed0:	f003 0330 	and.w	r3, r3, #48	; 0x30
  400ed4:	2b20      	cmp	r3, #32
  400ed6:	d0f4      	beq.n	400ec2 <hsmci_send_cmd_execute+0x72>
		sr = HSMCI->HSMCI_SR;
  400ed8:	6c0b      	ldr	r3, [r1, #64]	; 0x40
		if (busy_wait-- == 0) {
  400eda:	3a01      	subs	r2, #1
  400edc:	d1f8      	bne.n	400ed0 <hsmci_send_cmd_execute+0x80>
			hsmci_reset();
  400ede:	4b03      	ldr	r3, [pc, #12]	; (400eec <hsmci_send_cmd_execute+0x9c>)
  400ee0:	4798      	blx	r3
			return false;
  400ee2:	2000      	movs	r0, #0
  400ee4:	bd08      	pop	{r3, pc}
  400ee6:	bf00      	nop
  400ee8:	40080000 	.word	0x40080000
  400eec:	00400e29 	.word	0x00400e29

00400ef0 <hsmci_init>:

//-------------------------------------------------------------------
//--------------------- PUBLIC FUNCTIONS ----------------------------

void hsmci_init(void)
{
  400ef0:	b508      	push	{r3, lr}
	pmc_enable_periph_clk(ID_HSMCI);
  400ef2:	2010      	movs	r0, #16
  400ef4:	4b06      	ldr	r3, [pc, #24]	; (400f10 <hsmci_init+0x20>)
  400ef6:	4798      	blx	r3
	pmc_enable_periph_clk(ID_XDMAC);
#endif
#endif

	// Set the Data Timeout Register to 2 Mega Cycles
	HSMCI->HSMCI_DTOR = HSMCI_DTOR_DTOMUL_1048576 | HSMCI_DTOR_DTOCYC(2);
  400ef8:	4b06      	ldr	r3, [pc, #24]	; (400f14 <hsmci_init+0x24>)
  400efa:	2272      	movs	r2, #114	; 0x72
  400efc:	609a      	str	r2, [r3, #8]
	// Set Completion Signal Timeout to 2 Mega Cycles
	HSMCI->HSMCI_CSTOR = HSMCI_CSTOR_CSTOMUL_1048576 | HSMCI_CSTOR_CSTOCYC(2);
  400efe:	61da      	str	r2, [r3, #28]
	// Set Configuration Register
	HSMCI->HSMCI_CFG = HSMCI_CFG_FIFOMODE | HSMCI_CFG_FERRCTRL;
  400f00:	2211      	movs	r2, #17
  400f02:	655a      	str	r2, [r3, #84]	; 0x54
	// Set power saving to maximum value
	HSMCI->HSMCI_MR = HSMCI_MR_PWSDIV_Msk;
  400f04:	f44f 62e0 	mov.w	r2, #1792	; 0x700
  400f08:	605a      	str	r2, [r3, #4]

	// Enable the HSMCI and the Power Saving
	HSMCI->HSMCI_CR = HSMCI_CR_MCIEN | HSMCI_CR_PWSEN;
  400f0a:	2205      	movs	r2, #5
  400f0c:	601a      	str	r2, [r3, #0]
  400f0e:	bd08      	pop	{r3, pc}
  400f10:	004019a9 	.word	0x004019a9
  400f14:	40080000 	.word	0x40080000

00400f18 <hsmci_get_bus_width>:
}

uint8_t hsmci_get_bus_width(uint8_t slot)
{
	switch (slot) {
  400f18:	2800      	cmp	r0, #0
		return SD_MMC_HSMCI_SLOT_1_SIZE;
#endif
	default:
		return 0; // Slot number wrong
	}
}
  400f1a:	bf0c      	ite	eq
  400f1c:	2004      	moveq	r0, #4
  400f1e:	2000      	movne	r0, #0
  400f20:	4770      	bx	lr

00400f22 <hsmci_is_high_speed_capable>:

bool hsmci_is_high_speed_capable(void)
{
	return true;
}
  400f22:	2001      	movs	r0, #1
  400f24:	4770      	bx	lr
	...

00400f28 <hsmci_select_device>:
void hsmci_select_device(uint8_t slot, uint32_t clock, uint8_t bus_width, bool high_speed)
{
	uint32_t hsmci_slot = HSMCI_SDCR_SDCSEL_SLOTA;
	uint32_t hsmci_bus_width = HSMCI_SDCR_SDCBUS_1;

	if (high_speed) {
  400f28:	b363      	cbz	r3, 400f84 <hsmci_select_device+0x5c>
		HSMCI->HSMCI_CFG |= HSMCI_CFG_HSMODE;
  400f2a:	482a      	ldr	r0, [pc, #168]	; (400fd4 <hsmci_select_device+0xac>)
  400f2c:	6d43      	ldr	r3, [r0, #84]	; 0x54
  400f2e:	f443 7380 	orr.w	r3, r3, #256	; 0x100
  400f32:	6543      	str	r3, [r0, #84]	; 0x54
	if ((speed * 2) < mck) {
  400f34:	4b28      	ldr	r3, [pc, #160]	; (400fd8 <hsmci_select_device+0xb0>)
  400f36:	ebb3 0f41 	cmp.w	r3, r1, lsl #1
  400f3a:	d333      	bcc.n	400fa4 <hsmci_select_device+0x7c>
{
  400f3c:	b410      	push	{r4}
		div = (mck / speed) - 2;
  400f3e:	4827      	ldr	r0, [pc, #156]	; (400fdc <hsmci_select_device+0xb4>)
  400f40:	fbb0 f3f1 	udiv	r3, r0, r1
		if (mck % speed) {
  400f44:	fb01 0113 	mls	r1, r1, r3, r0
  400f48:	bb11      	cbnz	r1, 400f90 <hsmci_select_device+0x68>
		div = (mck / speed) - 2;
  400f4a:	3b02      	subs	r3, #2
	HSMCI->HSMCI_MR &= ~HSMCI_MR_CLKDIV_Msk;
  400f4c:	4921      	ldr	r1, [pc, #132]	; (400fd4 <hsmci_select_device+0xac>)
  400f4e:	6848      	ldr	r0, [r1, #4]
  400f50:	f020 00ff 	bic.w	r0, r0, #255	; 0xff
  400f54:	6048      	str	r0, [r1, #4]
	HSMCI->HSMCI_MR |= HSMCI_MR_CLKDIV(clkdiv);
  400f56:	684c      	ldr	r4, [r1, #4]
  400f58:	f3c3 0047 	ubfx	r0, r3, #1, #8
  400f5c:	4320      	orrs	r0, r4
  400f5e:	6048      	str	r0, [r1, #4]
	if (clkodd) {
  400f60:	f013 0f01 	tst.w	r3, #1
  400f64:	d016      	beq.n	400f94 <hsmci_select_device+0x6c>
		HSMCI->HSMCI_MR |= HSMCI_MR_CLKODD;
  400f66:	684b      	ldr	r3, [r1, #4]
  400f68:	f443 3380 	orr.w	r3, r3, #65536	; 0x10000
  400f6c:	604b      	str	r3, [r1, #4]
#endif
	default:
		Assert(false); // Slot number wrong
	}

	switch (bus_width) {
  400f6e:	2a04      	cmp	r2, #4
  400f70:	d016      	beq.n	400fa0 <hsmci_select_device+0x78>
	uint32_t hsmci_bus_width = HSMCI_SDCR_SDCBUS_1;
  400f72:	2a08      	cmp	r2, #8
  400f74:	bf0c      	ite	eq
  400f76:	22c0      	moveq	r2, #192	; 0xc0
  400f78:	2200      	movne	r2, #0
		break;

	default:
		Assert(false); // Bus width wrong
	}
	HSMCI->HSMCI_SDCR = hsmci_slot | hsmci_bus_width;
  400f7a:	4b16      	ldr	r3, [pc, #88]	; (400fd4 <hsmci_select_device+0xac>)
  400f7c:	60da      	str	r2, [r3, #12]
}
  400f7e:	f85d 4b04 	ldr.w	r4, [sp], #4
  400f82:	4770      	bx	lr
		HSMCI->HSMCI_CFG &= ~HSMCI_CFG_HSMODE;
  400f84:	4813      	ldr	r0, [pc, #76]	; (400fd4 <hsmci_select_device+0xac>)
  400f86:	6d43      	ldr	r3, [r0, #84]	; 0x54
  400f88:	f423 7380 	bic.w	r3, r3, #256	; 0x100
  400f8c:	6543      	str	r3, [r0, #84]	; 0x54
  400f8e:	e7d1      	b.n	400f34 <hsmci_select_device+0xc>
			div++;
  400f90:	3b01      	subs	r3, #1
  400f92:	e7db      	b.n	400f4c <hsmci_select_device+0x24>
		HSMCI->HSMCI_MR &= ~HSMCI_MR_CLKODD;
  400f94:	490f      	ldr	r1, [pc, #60]	; (400fd4 <hsmci_select_device+0xac>)
  400f96:	684b      	ldr	r3, [r1, #4]
  400f98:	f423 3380 	bic.w	r3, r3, #65536	; 0x10000
  400f9c:	604b      	str	r3, [r1, #4]
  400f9e:	e7e6      	b.n	400f6e <hsmci_select_device+0x46>
		hsmci_bus_width = HSMCI_SDCR_SDCBUS_4;
  400fa0:	2280      	movs	r2, #128	; 0x80
  400fa2:	e7ea      	b.n	400f7a <hsmci_select_device+0x52>
	HSMCI->HSMCI_MR &= ~HSMCI_MR_CLKDIV_Msk;
  400fa4:	4b0b      	ldr	r3, [pc, #44]	; (400fd4 <hsmci_select_device+0xac>)
  400fa6:	6859      	ldr	r1, [r3, #4]
  400fa8:	f021 01ff 	bic.w	r1, r1, #255	; 0xff
  400fac:	6059      	str	r1, [r3, #4]
	HSMCI->HSMCI_MR |= HSMCI_MR_CLKDIV(clkdiv);
  400fae:	6859      	ldr	r1, [r3, #4]
  400fb0:	6059      	str	r1, [r3, #4]
		HSMCI->HSMCI_MR &= ~HSMCI_MR_CLKODD;
  400fb2:	4908      	ldr	r1, [pc, #32]	; (400fd4 <hsmci_select_device+0xac>)
  400fb4:	684b      	ldr	r3, [r1, #4]
  400fb6:	f423 3380 	bic.w	r3, r3, #65536	; 0x10000
  400fba:	604b      	str	r3, [r1, #4]
	switch (bus_width) {
  400fbc:	2a04      	cmp	r2, #4
  400fbe:	d006      	beq.n	400fce <hsmci_select_device+0xa6>
	uint32_t hsmci_bus_width = HSMCI_SDCR_SDCBUS_1;
  400fc0:	2a08      	cmp	r2, #8
  400fc2:	bf0c      	ite	eq
  400fc4:	22c0      	moveq	r2, #192	; 0xc0
  400fc6:	2200      	movne	r2, #0
	HSMCI->HSMCI_SDCR = hsmci_slot | hsmci_bus_width;
  400fc8:	4b02      	ldr	r3, [pc, #8]	; (400fd4 <hsmci_select_device+0xac>)
  400fca:	60da      	str	r2, [r3, #12]
  400fcc:	4770      	bx	lr
		hsmci_bus_width = HSMCI_SDCR_SDCBUS_4;
  400fce:	2280      	movs	r2, #128	; 0x80
  400fd0:	e7fa      	b.n	400fc8 <hsmci_select_device+0xa0>
  400fd2:	bf00      	nop
  400fd4:	40080000 	.word	0x40080000
  400fd8:	05b8d7ff 	.word	0x05b8d7ff
  400fdc:	05b8d800 	.word	0x05b8d800

00400fe0 <hsmci_deselect_device>:

void hsmci_deselect_device(uint8_t slot)
{
  400fe0:	4770      	bx	lr
	...

00400fe4 <hsmci_send_clock>:
}

void hsmci_send_clock(void)
{
	// Configure command
	HSMCI->HSMCI_MR &= ~(HSMCI_MR_WRPROOF | HSMCI_MR_RDPROOF | HSMCI_MR_FBYTE);
  400fe4:	4b07      	ldr	r3, [pc, #28]	; (401004 <hsmci_send_clock+0x20>)
  400fe6:	685a      	ldr	r2, [r3, #4]
  400fe8:	f422 5260 	bic.w	r2, r2, #14336	; 0x3800
  400fec:	605a      	str	r2, [r3, #4]
	// Write argument
	HSMCI->HSMCI_ARGR = 0;
  400fee:	2200      	movs	r2, #0
  400ff0:	611a      	str	r2, [r3, #16]
	// Write and start initialization command
	HSMCI->HSMCI_CMDR = HSMCI_CMDR_RSPTYP_NORESP
  400ff2:	f44f 6210 	mov.w	r2, #2304	; 0x900
  400ff6:	615a      	str	r2, [r3, #20]
			| HSMCI_CMDR_SPCMD_INIT
			| HSMCI_CMDR_OPDCMD_OPENDRAIN;
	// Wait end of initialization command
	while (!(HSMCI->HSMCI_SR & HSMCI_SR_CMDRDY));
  400ff8:	461a      	mov	r2, r3
  400ffa:	6c13      	ldr	r3, [r2, #64]	; 0x40
  400ffc:	f013 0f01 	tst.w	r3, #1
  401000:	d0fb      	beq.n	400ffa <hsmci_send_clock+0x16>
}
  401002:	4770      	bx	lr
  401004:	40080000 	.word	0x40080000

00401008 <hsmci_send_cmd>:

bool hsmci_send_cmd(sdmmc_cmd_def_t cmd, uint32_t arg)
{
  401008:	b510      	push	{r4, lr}
	// Configure command
	HSMCI->HSMCI_MR &= ~(HSMCI_MR_WRPROOF | HSMCI_MR_RDPROOF | HSMCI_MR_FBYTE);
  40100a:	4b08      	ldr	r3, [pc, #32]	; (40102c <hsmci_send_cmd+0x24>)
  40100c:	685a      	ldr	r2, [r3, #4]
  40100e:	f422 5260 	bic.w	r2, r2, #14336	; 0x3800
  401012:	605a      	str	r2, [r3, #4]
	// Disable DMA for HSMCI
	HSMCI->HSMCI_DMA = 0;
#endif
#ifdef HSMCI_MR_PDCMODE
	// Disable PDC for HSMCI
	HSMCI->HSMCI_MR &= ~HSMCI_MR_PDCMODE;
  401014:	685a      	ldr	r2, [r3, #4]
  401016:	f422 4200 	bic.w	r2, r2, #32768	; 0x8000
  40101a:	605a      	str	r2, [r3, #4]
#ifdef HSMCI_DMA_DMAEN
	// Disable DMA for HSMCI
	HSMCI->HSMCI_DMA = 0;
#endif
#endif
	HSMCI->HSMCI_BLKR = 0;
  40101c:	2400      	movs	r4, #0
  40101e:	619c      	str	r4, [r3, #24]
	return hsmci_send_cmd_execute(0, cmd, arg);
  401020:	460a      	mov	r2, r1
  401022:	4601      	mov	r1, r0
  401024:	4620      	mov	r0, r4
  401026:	4b02      	ldr	r3, [pc, #8]	; (401030 <hsmci_send_cmd+0x28>)
  401028:	4798      	blx	r3
}
  40102a:	bd10      	pop	{r4, pc}
  40102c:	40080000 	.word	0x40080000
  401030:	00400e51 	.word	0x00400e51

00401034 <hsmci_get_response>:

uint32_t hsmci_get_response(void)
{
	return HSMCI->HSMCI_RSPR[0];
  401034:	4b01      	ldr	r3, [pc, #4]	; (40103c <hsmci_get_response+0x8>)
  401036:	6a18      	ldr	r0, [r3, #32]
}
  401038:	4770      	bx	lr
  40103a:	bf00      	nop
  40103c:	40080000 	.word	0x40080000

00401040 <hsmci_get_response_128>:

void hsmci_get_response_128(uint8_t* response)
{
  401040:	b410      	push	{r4}
  401042:	1d03      	adds	r3, r0, #4
  401044:	3014      	adds	r0, #20
	uint32_t response_32;

	for (uint8_t i = 0; i < 4; i++) {
		response_32 = HSMCI->HSMCI_RSPR[0];
  401046:	4c09      	ldr	r4, [pc, #36]	; (40106c <hsmci_get_response_128+0x2c>)
  401048:	6a22      	ldr	r2, [r4, #32]
		*response = (response_32 >> 24) & 0xFF;
  40104a:	0e11      	lsrs	r1, r2, #24
  40104c:	f803 1c04 	strb.w	r1, [r3, #-4]
		response++;
		*response = (response_32 >> 16) & 0xFF;
  401050:	0c11      	lsrs	r1, r2, #16
  401052:	f803 1c03 	strb.w	r1, [r3, #-3]
		response++;
		*response = (response_32 >>  8) & 0xFF;
  401056:	0a11      	lsrs	r1, r2, #8
  401058:	f803 1c02 	strb.w	r1, [r3, #-2]
		response++;
		*response = (response_32 >>  0) & 0xFF;
  40105c:	f803 2c01 	strb.w	r2, [r3, #-1]
  401060:	3304      	adds	r3, #4
	for (uint8_t i = 0; i < 4; i++) {
  401062:	4283      	cmp	r3, r0
  401064:	d1f0      	bne.n	401048 <hsmci_get_response_128+0x8>
		response++;
	}
}
  401066:	f85d 4b04 	ldr.w	r4, [sp], #4
  40106a:	4770      	bx	lr
  40106c:	40080000 	.word	0x40080000

00401070 <hsmci_adtc_start>:

bool hsmci_adtc_start(sdmmc_cmd_def_t cmd, uint32_t arg, uint16_t block_size, uint16_t nb_block, bool access_block)
{
  401070:	b570      	push	{r4, r5, r6, lr}
  401072:	f89d 4010 	ldrb.w	r4, [sp, #16]
		HSMCI->HSMCI_DMA = 0;
	}
#endif

#ifdef HSMCI_MR_PDCMODE
	if (access_block) {
  401076:	b374      	cbz	r4, 4010d6 <hsmci_adtc_start+0x66>
		// Enable PDC for HSMCI
		HSMCI->HSMCI_MR |= HSMCI_MR_PDCMODE;
  401078:	4d29      	ldr	r5, [pc, #164]	; (401120 <hsmci_adtc_start+0xb0>)
  40107a:	686c      	ldr	r4, [r5, #4]
  40107c:	f444 4400 	orr.w	r4, r4, #32768	; 0x8000
  401080:	606c      	str	r4, [r5, #4]
#endif
#endif
	// Enabling Read/Write Proof allows to stop the HSMCI Clock during
	// read/write  access if the internal FIFO is full.
	// This will guarantee data integrity, not bandwidth.
	HSMCI->HSMCI_MR |= HSMCI_MR_WRPROOF | HSMCI_MR_RDPROOF;
  401082:	4d27      	ldr	r5, [pc, #156]	; (401120 <hsmci_adtc_start+0xb0>)
  401084:	686c      	ldr	r4, [r5, #4]
  401086:	f444 54c0 	orr.w	r4, r4, #6144	; 0x1800
  40108a:	606c      	str	r4, [r5, #4]
	// Force byte transfer if needed
	if (block_size & 0x3) {
  40108c:	f012 0f03 	tst.w	r2, #3
  401090:	d027      	beq.n	4010e2 <hsmci_adtc_start+0x72>
		HSMCI->HSMCI_MR |= HSMCI_MR_FBYTE;
  401092:	686c      	ldr	r4, [r5, #4]
  401094:	f444 5400 	orr.w	r4, r4, #8192	; 0x2000
  401098:	606c      	str	r4, [r5, #4]
	} else {
		HSMCI->HSMCI_MR &= ~HSMCI_MR_FBYTE;
	}

	if (cmd & SDMMC_CMD_WRITE) {
  40109a:	f400 4400 	and.w	r4, r0, #32768	; 0x8000
		cmdr = HSMCI_CMDR_TRCMD_START_DATA | HSMCI_CMDR_TRDIR_WRITE;
	} else {
		cmdr = HSMCI_CMDR_TRCMD_START_DATA | HSMCI_CMDR_TRDIR_READ;
  40109e:	2c00      	cmp	r4, #0
  4010a0:	bf14      	ite	ne
  4010a2:	f44f 3480 	movne.w	r4, #65536	; 0x10000
  4010a6:	f44f 24a0 	moveq.w	r4, #327680	; 0x50000
	}

	if (cmd & SDMMC_CMD_SDIO_BYTE) {
  4010aa:	f410 3f80 	tst.w	r0, #65536	; 0x10000
  4010ae:	d11e      	bne.n	4010ee <hsmci_adtc_start+0x7e>
			cmdr |= HSMCI_CMDR_TRTYP_BYTE;
			// Value 0 corresponds to a 512-byte transfer
			HSMCI->HSMCI_BLKR = ((block_size % 512) << HSMCI_BLKR_BCNT_Pos);
	} else {
		HSMCI->HSMCI_BLKR = (block_size << HSMCI_BLKR_BLKLEN_Pos) |
  4010b0:	ea43 4502 	orr.w	r5, r3, r2, lsl #16
  4010b4:	4e1a      	ldr	r6, [pc, #104]	; (401120 <hsmci_adtc_start+0xb0>)
  4010b6:	61b5      	str	r5, [r6, #24]
				(nb_block << HSMCI_BLKR_BCNT_Pos);
		if (cmd & SDMMC_CMD_SDIO_BLOCK) {
  4010b8:	f410 3f00 	tst.w	r0, #131072	; 0x20000
  4010bc:	d12a      	bne.n	401114 <hsmci_adtc_start+0xa4>
			cmdr |= HSMCI_CMDR_TRTYP_BLOCK;
		} else if (cmd & SDMMC_CMD_STREAM) {
  4010be:	f410 2f80 	tst.w	r0, #262144	; 0x40000
  4010c2:	d12a      	bne.n	40111a <hsmci_adtc_start+0xaa>
			cmdr |= HSMCI_CMDR_TRTYP_STREAM;
		} else if (cmd & SDMMC_CMD_SINGLE_BLOCK) {
  4010c4:	f410 2f00 	tst.w	r0, #524288	; 0x80000
  4010c8:	d117      	bne.n	4010fa <hsmci_adtc_start+0x8a>
			cmdr |= HSMCI_CMDR_TRTYP_SINGLE;
		} else if (cmd & SDMMC_CMD_MULTI_BLOCK) {
  4010ca:	f410 1f80 	tst.w	r0, #1048576	; 0x100000
			cmdr |= HSMCI_CMDR_TRTYP_MULTIPLE;
  4010ce:	bf18      	it	ne
  4010d0:	f444 2400 	orrne.w	r4, r4, #524288	; 0x80000
  4010d4:	e011      	b.n	4010fa <hsmci_adtc_start+0x8a>
		HSMCI->HSMCI_MR &= ~HSMCI_MR_PDCMODE;
  4010d6:	4d12      	ldr	r5, [pc, #72]	; (401120 <hsmci_adtc_start+0xb0>)
  4010d8:	686c      	ldr	r4, [r5, #4]
  4010da:	f424 4400 	bic.w	r4, r4, #32768	; 0x8000
  4010de:	606c      	str	r4, [r5, #4]
  4010e0:	e7cf      	b.n	401082 <hsmci_adtc_start+0x12>
		HSMCI->HSMCI_MR &= ~HSMCI_MR_FBYTE;
  4010e2:	4d0f      	ldr	r5, [pc, #60]	; (401120 <hsmci_adtc_start+0xb0>)
  4010e4:	686c      	ldr	r4, [r5, #4]
  4010e6:	f424 5400 	bic.w	r4, r4, #8192	; 0x2000
  4010ea:	606c      	str	r4, [r5, #4]
  4010ec:	e7d5      	b.n	40109a <hsmci_adtc_start+0x2a>
			cmdr |= HSMCI_CMDR_TRTYP_BYTE;
  4010ee:	f444 1400 	orr.w	r4, r4, #2097152	; 0x200000
			HSMCI->HSMCI_BLKR = ((block_size % 512) << HSMCI_BLKR_BCNT_Pos);
  4010f2:	f3c2 0508 	ubfx	r5, r2, #0, #9
  4010f6:	4e0a      	ldr	r6, [pc, #40]	; (401120 <hsmci_adtc_start+0xb0>)
  4010f8:	61b5      	str	r5, [r6, #24]
		} else {
			Assert(false); // Incorrect flags
		}
	}
	hsmci_transfert_pos = 0;
  4010fa:	2600      	movs	r6, #0
  4010fc:	4d09      	ldr	r5, [pc, #36]	; (401124 <hsmci_adtc_start+0xb4>)
  4010fe:	602e      	str	r6, [r5, #0]
	hsmci_block_size = block_size;
  401100:	4d09      	ldr	r5, [pc, #36]	; (401128 <hsmci_adtc_start+0xb8>)
  401102:	802a      	strh	r2, [r5, #0]
	hsmci_nb_block = nb_block;
  401104:	4a09      	ldr	r2, [pc, #36]	; (40112c <hsmci_adtc_start+0xbc>)
  401106:	8013      	strh	r3, [r2, #0]

	return hsmci_send_cmd_execute(cmdr, cmd, arg);
  401108:	460a      	mov	r2, r1
  40110a:	4601      	mov	r1, r0
  40110c:	4620      	mov	r0, r4
  40110e:	4b08      	ldr	r3, [pc, #32]	; (401130 <hsmci_adtc_start+0xc0>)
  401110:	4798      	blx	r3
}
  401112:	bd70      	pop	{r4, r5, r6, pc}
			cmdr |= HSMCI_CMDR_TRTYP_BLOCK;
  401114:	f444 1420 	orr.w	r4, r4, #2621440	; 0x280000
  401118:	e7ef      	b.n	4010fa <hsmci_adtc_start+0x8a>
			cmdr |= HSMCI_CMDR_TRTYP_STREAM;
  40111a:	f444 1480 	orr.w	r4, r4, #1048576	; 0x100000
  40111e:	e7ec      	b.n	4010fa <hsmci_adtc_start+0x8a>
  401120:	40080000 	.word	0x40080000
  401124:	20000480 	.word	0x20000480
  401128:	2000047a 	.word	0x2000047a
  40112c:	2000047c 	.word	0x2000047c
  401130:	00400e51 	.word	0x00400e51

00401134 <hsmci_read_word>:
{
	return hsmci_send_cmd_execute(HSMCI_CMDR_TRCMD_STOP_DATA, cmd, arg);
}

bool hsmci_read_word(uint32_t* value)
{
  401134:	b508      	push	{r3, lr}

	Assert(((uint32_t)hsmci_block_size * hsmci_nb_block) > hsmci_transfert_pos);

	// Wait data available
	do {
		sr = HSMCI->HSMCI_SR;
  401136:	4915      	ldr	r1, [pc, #84]	; (40118c <hsmci_read_word+0x58>)
		if (sr & (HSMCI_SR_UNRE | HSMCI_SR_OVRE | \
  401138:	4a15      	ldr	r2, [pc, #84]	; (401190 <hsmci_read_word+0x5c>)
		sr = HSMCI->HSMCI_SR;
  40113a:	6c0b      	ldr	r3, [r1, #64]	; 0x40
		if (sr & (HSMCI_SR_UNRE | HSMCI_SR_OVRE | \
  40113c:	4213      	tst	r3, r2
  40113e:	d11b      	bne.n	401178 <hsmci_read_word+0x44>
			hsmci_debug("%s: DMA sr 0x%08x error\n\r",
					__func__, sr);
			hsmci_reset();
			return false;
		}
	} while (!(sr & HSMCI_SR_RXRDY));
  401140:	f013 0f02 	tst.w	r3, #2
  401144:	d0f9      	beq.n	40113a <hsmci_read_word+0x6>

	// Read data
	*value = HSMCI->HSMCI_RDR;
  401146:	4b11      	ldr	r3, [pc, #68]	; (40118c <hsmci_read_word+0x58>)
  401148:	6b1b      	ldr	r3, [r3, #48]	; 0x30
  40114a:	6003      	str	r3, [r0, #0]
	hsmci_transfert_pos += 4;
  40114c:	4a11      	ldr	r2, [pc, #68]	; (401194 <hsmci_read_word+0x60>)
  40114e:	6813      	ldr	r3, [r2, #0]
  401150:	3304      	adds	r3, #4
  401152:	6013      	str	r3, [r2, #0]
	if (((uint32_t)hsmci_block_size * hsmci_nb_block) > hsmci_transfert_pos) {
  401154:	4a10      	ldr	r2, [pc, #64]	; (401198 <hsmci_read_word+0x64>)
  401156:	8811      	ldrh	r1, [r2, #0]
  401158:	4a10      	ldr	r2, [pc, #64]	; (40119c <hsmci_read_word+0x68>)
  40115a:	8812      	ldrh	r2, [r2, #0]
  40115c:	fb02 f201 	mul.w	r2, r2, r1
  401160:	4293      	cmp	r3, r2
  401162:	d311      	bcc.n	401188 <hsmci_read_word+0x54>
	}

	// Wait end of transfer
	// Note: no need of timeout, because it is include in HSMCI
	do {
		sr = HSMCI->HSMCI_SR;
  401164:	4909      	ldr	r1, [pc, #36]	; (40118c <hsmci_read_word+0x58>)
		if (sr & (HSMCI_SR_UNRE | HSMCI_SR_OVRE | \
  401166:	4a0a      	ldr	r2, [pc, #40]	; (401190 <hsmci_read_word+0x5c>)
		sr = HSMCI->HSMCI_SR;
  401168:	6c0b      	ldr	r3, [r1, #64]	; 0x40
		if (sr & (HSMCI_SR_UNRE | HSMCI_SR_OVRE | \
  40116a:	4213      	tst	r3, r2
  40116c:	d108      	bne.n	401180 <hsmci_read_word+0x4c>
			hsmci_debug("%s: DMA sr 0x%08x error\n\r",
					__func__, sr);
			hsmci_reset();
			return false;
		}
	} while (!(sr & HSMCI_SR_XFRDONE));
  40116e:	f013 6f00 	tst.w	r3, #134217728	; 0x8000000
  401172:	d0f9      	beq.n	401168 <hsmci_read_word+0x34>
	return true;
  401174:	2001      	movs	r0, #1
  401176:	bd08      	pop	{r3, pc}
			hsmci_reset();
  401178:	4b09      	ldr	r3, [pc, #36]	; (4011a0 <hsmci_read_word+0x6c>)
  40117a:	4798      	blx	r3
			return false;
  40117c:	2000      	movs	r0, #0
  40117e:	bd08      	pop	{r3, pc}
			hsmci_reset();
  401180:	4b07      	ldr	r3, [pc, #28]	; (4011a0 <hsmci_read_word+0x6c>)
  401182:	4798      	blx	r3
			return false;
  401184:	2000      	movs	r0, #0
  401186:	bd08      	pop	{r3, pc}
		return true;
  401188:	2001      	movs	r0, #1
}
  40118a:	bd08      	pop	{r3, pc}
  40118c:	40080000 	.word	0x40080000
  401190:	c0600000 	.word	0xc0600000
  401194:	20000480 	.word	0x20000480
  401198:	2000047a 	.word	0x2000047a
  40119c:	2000047c 	.word	0x2000047c
  4011a0:	00400e29 	.word	0x00400e29

004011a4 <hsmci_start_read_blocks>:
#ifdef HSMCI_MR_PDCMODE
bool hsmci_start_read_blocks(void *dest, uint16_t nb_block)
{
	uint32_t nb_data;

	nb_data = nb_block * hsmci_block_size;
  4011a4:	4b15      	ldr	r3, [pc, #84]	; (4011fc <hsmci_start_read_blocks+0x58>)
  4011a6:	881b      	ldrh	r3, [r3, #0]
  4011a8:	fb03 f101 	mul.w	r1, r3, r1
	Assert(nb_data <= (((uint32_t)hsmci_block_size * hsmci_nb_block) - hsmci_transfert_pos));
	Assert(nb_data <= (PERIPH_RCR_RXCTR_Msk >> PERIPH_RCR_RXCTR_Pos));

	// Handle unaligned memory address
	if (((uint32_t)dest & 0x3) || (hsmci_block_size & 0x3)) {
  4011ac:	f010 0f03 	tst.w	r0, #3
  4011b0:	d102      	bne.n	4011b8 <hsmci_start_read_blocks+0x14>
  4011b2:	f013 0f03 	tst.w	r3, #3
  4011b6:	d01b      	beq.n	4011f0 <hsmci_start_read_blocks+0x4c>
		HSMCI->HSMCI_MR |= HSMCI_MR_FBYTE;
  4011b8:	4a11      	ldr	r2, [pc, #68]	; (401200 <hsmci_start_read_blocks+0x5c>)
  4011ba:	6853      	ldr	r3, [r2, #4]
  4011bc:	f443 5300 	orr.w	r3, r3, #8192	; 0x2000
  4011c0:	6053      	str	r3, [r2, #4]
	} else {
		HSMCI->HSMCI_MR &= ~HSMCI_MR_FBYTE;
	}

	// Configure PDC transfer
	HSMCI->HSMCI_RPR = (uint32_t)dest;
  4011c2:	4b0f      	ldr	r3, [pc, #60]	; (401200 <hsmci_start_read_blocks+0x5c>)
  4011c4:	f8c3 0100 	str.w	r0, [r3, #256]	; 0x100
	HSMCI->HSMCI_RCR = (HSMCI->HSMCI_MR & HSMCI_MR_FBYTE) ?
  4011c8:	685b      	ldr	r3, [r3, #4]
			nb_data : nb_data / 4;
  4011ca:	f413 5f00 	tst.w	r3, #8192	; 0x2000
  4011ce:	bf0c      	ite	eq
  4011d0:	088b      	lsreq	r3, r1, #2
  4011d2:	460b      	movne	r3, r1
	HSMCI->HSMCI_RCR = (HSMCI->HSMCI_MR & HSMCI_MR_FBYTE) ?
  4011d4:	4a0a      	ldr	r2, [pc, #40]	; (401200 <hsmci_start_read_blocks+0x5c>)
  4011d6:	f8c2 3104 	str.w	r3, [r2, #260]	; 0x104
	HSMCI->HSMCI_RNCR = 0;
  4011da:	2300      	movs	r3, #0
  4011dc:	f8c2 3114 	str.w	r3, [r2, #276]	; 0x114
	// Start transfer
	HSMCI->HSMCI_PTCR = HSMCI_PTCR_RXTEN;
  4011e0:	2001      	movs	r0, #1
  4011e2:	f8c2 0120 	str.w	r0, [r2, #288]	; 0x120
	hsmci_transfert_pos += nb_data;
  4011e6:	4a07      	ldr	r2, [pc, #28]	; (401204 <hsmci_start_read_blocks+0x60>)
  4011e8:	6813      	ldr	r3, [r2, #0]
  4011ea:	440b      	add	r3, r1
  4011ec:	6013      	str	r3, [r2, #0]
	return true;
}
  4011ee:	4770      	bx	lr
		HSMCI->HSMCI_MR &= ~HSMCI_MR_FBYTE;
  4011f0:	4a03      	ldr	r2, [pc, #12]	; (401200 <hsmci_start_read_blocks+0x5c>)
  4011f2:	6853      	ldr	r3, [r2, #4]
  4011f4:	f423 5300 	bic.w	r3, r3, #8192	; 0x2000
  4011f8:	6053      	str	r3, [r2, #4]
  4011fa:	e7e2      	b.n	4011c2 <hsmci_start_read_blocks+0x1e>
  4011fc:	2000047a 	.word	0x2000047a
  401200:	40080000 	.word	0x40080000
  401204:	20000480 	.word	0x20000480

00401208 <hsmci_wait_end_of_read_blocks>:

bool hsmci_wait_end_of_read_blocks(void)
{
  401208:	b508      	push	{r3, lr}
	uint32_t sr;
	// Wait end of transfer
	// Note: no need of timeout, because it is include in HSMCI, see DTOE bit.
	do {
		sr = HSMCI->HSMCI_SR;
  40120a:	4915      	ldr	r1, [pc, #84]	; (401260 <hsmci_wait_end_of_read_blocks+0x58>)
		if (sr & (HSMCI_SR_UNRE | HSMCI_SR_OVRE | \
  40120c:	4a15      	ldr	r2, [pc, #84]	; (401264 <hsmci_wait_end_of_read_blocks+0x5c>)
		sr = HSMCI->HSMCI_SR;
  40120e:	6c0b      	ldr	r3, [r1, #64]	; 0x40
		if (sr & (HSMCI_SR_UNRE | HSMCI_SR_OVRE | \
  401210:	4213      	tst	r3, r2
  401212:	d116      	bne.n	401242 <hsmci_wait_end_of_read_blocks+0x3a>
			HSMCI->HSMCI_PTCR = HSMCI_PTCR_RXTDIS | HSMCI_PTCR_TXTDIS;
			hsmci_reset();
			return false;
		}

	} while (!(sr & HSMCI_SR_RXBUFF));
  401214:	f413 4f80 	tst.w	r3, #16384	; 0x4000
  401218:	d0f9      	beq.n	40120e <hsmci_wait_end_of_read_blocks+0x6>

	if (hsmci_transfert_pos < ((uint32_t)hsmci_block_size * hsmci_nb_block)) {
  40121a:	4b13      	ldr	r3, [pc, #76]	; (401268 <hsmci_wait_end_of_read_blocks+0x60>)
  40121c:	881a      	ldrh	r2, [r3, #0]
  40121e:	4b13      	ldr	r3, [pc, #76]	; (40126c <hsmci_wait_end_of_read_blocks+0x64>)
  401220:	881b      	ldrh	r3, [r3, #0]
  401222:	fb03 f302 	mul.w	r3, r3, r2
  401226:	4a12      	ldr	r2, [pc, #72]	; (401270 <hsmci_wait_end_of_read_blocks+0x68>)
  401228:	6812      	ldr	r2, [r2, #0]
  40122a:	4293      	cmp	r3, r2
  40122c:	d816      	bhi.n	40125c <hsmci_wait_end_of_read_blocks+0x54>
		return true;
	}
	// It is the last transfer, then wait command completed
	// Note: no need of timeout, because it is include in HSMCI, see DTOE bit.
	do {
		sr = HSMCI->HSMCI_SR;
  40122e:	490c      	ldr	r1, [pc, #48]	; (401260 <hsmci_wait_end_of_read_blocks+0x58>)
		if (sr & (HSMCI_SR_UNRE | HSMCI_SR_OVRE | \
  401230:	4a0c      	ldr	r2, [pc, #48]	; (401264 <hsmci_wait_end_of_read_blocks+0x5c>)
		sr = HSMCI->HSMCI_SR;
  401232:	6c0b      	ldr	r3, [r1, #64]	; 0x40
		if (sr & (HSMCI_SR_UNRE | HSMCI_SR_OVRE | \
  401234:	4213      	tst	r3, r2
  401236:	d10d      	bne.n	401254 <hsmci_wait_end_of_read_blocks+0x4c>
			hsmci_debug("%s: PDC sr 0x%08x last transfer error\n\r",
					__func__, sr);
			hsmci_reset();
			return false;
		}
	} while (!(sr & HSMCI_SR_XFRDONE));
  401238:	f013 6f00 	tst.w	r3, #134217728	; 0x8000000
  40123c:	d0f9      	beq.n	401232 <hsmci_wait_end_of_read_blocks+0x2a>
	return true;
  40123e:	2001      	movs	r0, #1
  401240:	bd08      	pop	{r3, pc}
			HSMCI->HSMCI_PTCR = HSMCI_PTCR_RXTDIS | HSMCI_PTCR_TXTDIS;
  401242:	f240 2202 	movw	r2, #514	; 0x202
  401246:	4b06      	ldr	r3, [pc, #24]	; (401260 <hsmci_wait_end_of_read_blocks+0x58>)
  401248:	f8c3 2120 	str.w	r2, [r3, #288]	; 0x120
			hsmci_reset();
  40124c:	4b09      	ldr	r3, [pc, #36]	; (401274 <hsmci_wait_end_of_read_blocks+0x6c>)
  40124e:	4798      	blx	r3
			return false;
  401250:	2000      	movs	r0, #0
  401252:	bd08      	pop	{r3, pc}
			hsmci_reset();
  401254:	4b07      	ldr	r3, [pc, #28]	; (401274 <hsmci_wait_end_of_read_blocks+0x6c>)
  401256:	4798      	blx	r3
			return false;
  401258:	2000      	movs	r0, #0
  40125a:	bd08      	pop	{r3, pc}
		return true;
  40125c:	2001      	movs	r0, #1
}
  40125e:	bd08      	pop	{r3, pc}
  401260:	40080000 	.word	0x40080000
  401264:	c0600000 	.word	0xc0600000
  401268:	2000047a 	.word	0x2000047a
  40126c:	2000047c 	.word	0x2000047c
  401270:	20000480 	.word	0x20000480
  401274:	00400e29 	.word	0x00400e29

00401278 <Dummy_Handler>:

/**
 * \brief Default interrupt handler for unused IRQs.
 */
void Dummy_Handler(void)
{
  401278:	e7fe      	b.n	401278 <Dummy_Handler>
	...

0040127c <Reset_Handler>:
/**
 * \brief This is the code that gets called on processor reset.
 * To initialize the device, and call the main() routine.
 */
void Reset_Handler(void)
{
  40127c:	b500      	push	{lr}
  40127e:	b083      	sub	sp, #12

	/* Initialize the relocate segment */
	pSrc = &_etext;
	pDest = &_srelocate;

	if (pSrc != pDest) {
  401280:	4b25      	ldr	r3, [pc, #148]	; (401318 <Reset_Handler+0x9c>)
  401282:	4a26      	ldr	r2, [pc, #152]	; (40131c <Reset_Handler+0xa0>)
  401284:	429a      	cmp	r2, r3
  401286:	d010      	beq.n	4012aa <Reset_Handler+0x2e>
		for (; pDest < &_erelocate;) {
  401288:	4b25      	ldr	r3, [pc, #148]	; (401320 <Reset_Handler+0xa4>)
  40128a:	4a23      	ldr	r2, [pc, #140]	; (401318 <Reset_Handler+0x9c>)
  40128c:	429a      	cmp	r2, r3
  40128e:	d20c      	bcs.n	4012aa <Reset_Handler+0x2e>
  401290:	3b01      	subs	r3, #1
  401292:	1a9b      	subs	r3, r3, r2
  401294:	f023 0303 	bic.w	r3, r3, #3
  401298:	3304      	adds	r3, #4
  40129a:	4413      	add	r3, r2
  40129c:	491f      	ldr	r1, [pc, #124]	; (40131c <Reset_Handler+0xa0>)
			*pDest++ = *pSrc++;
  40129e:	f851 0b04 	ldr.w	r0, [r1], #4
  4012a2:	f842 0b04 	str.w	r0, [r2], #4
		for (; pDest < &_erelocate;) {
  4012a6:	429a      	cmp	r2, r3
  4012a8:	d1f9      	bne.n	40129e <Reset_Handler+0x22>
		}
	}

	/* Clear the zero segment */
	for (pDest = &_szero; pDest < &_ezero;) {
  4012aa:	4b1e      	ldr	r3, [pc, #120]	; (401324 <Reset_Handler+0xa8>)
  4012ac:	4a1e      	ldr	r2, [pc, #120]	; (401328 <Reset_Handler+0xac>)
  4012ae:	429a      	cmp	r2, r3
  4012b0:	d20a      	bcs.n	4012c8 <Reset_Handler+0x4c>
  4012b2:	3b01      	subs	r3, #1
  4012b4:	1a9b      	subs	r3, r3, r2
  4012b6:	f023 0303 	bic.w	r3, r3, #3
  4012ba:	3304      	adds	r3, #4
  4012bc:	4413      	add	r3, r2
		*pDest++ = 0;
  4012be:	2100      	movs	r1, #0
  4012c0:	f842 1b04 	str.w	r1, [r2], #4
	for (pDest = &_szero; pDest < &_ezero;) {
  4012c4:	4293      	cmp	r3, r2
  4012c6:	d1fb      	bne.n	4012c0 <Reset_Handler+0x44>
	}

	/* Set the vector table base address */
	pSrc = (uint32_t *) & _sfixed;
	SCB->VTOR = ((uint32_t) pSrc & SCB_VTOR_TBLOFF_Msk);
  4012c8:	4a18      	ldr	r2, [pc, #96]	; (40132c <Reset_Handler+0xb0>)
  4012ca:	4b19      	ldr	r3, [pc, #100]	; (401330 <Reset_Handler+0xb4>)
  4012cc:	f023 037f 	bic.w	r3, r3, #127	; 0x7f
  4012d0:	6093      	str	r3, [r2, #8]
 */
__STATIC_FORCEINLINE uint32_t __get_PRIMASK(void)
{
  uint32_t result;

  __ASM volatile ("MRS %0, primask" : "=r" (result) :: "memory");
  4012d2:	f3ef 8310 	mrs	r3, PRIMASK
static volatile uint32_t cpu_irq_critical_section_counter;
static volatile bool     cpu_irq_prev_interrupt_state;

static inline irqflags_t cpu_irq_save(void)
{
	volatile irqflags_t flags = cpu_irq_is_enabled();
  4012d6:	fab3 f383 	clz	r3, r3
  4012da:	095b      	lsrs	r3, r3, #5
  4012dc:	9301      	str	r3, [sp, #4]
  __ASM volatile ("cpsid i" : : : "memory");
  4012de:	b672      	cpsid	i
  \details Ensures the apparent order of the explicit memory operations before
           and after the instruction, without ensuring their completion.
 */
__STATIC_FORCEINLINE void __DMB(void)
{
  __ASM volatile ("dmb 0xF":::"memory");
  4012e0:	f3bf 8f5f 	dmb	sy
	cpu_irq_disable();
  4012e4:	2200      	movs	r2, #0
  4012e6:	4b13      	ldr	r3, [pc, #76]	; (401334 <Reset_Handler+0xb8>)
  4012e8:	701a      	strb	r2, [r3, #0]
	return flags;
  4012ea:	9901      	ldr	r1, [sp, #4]
 */
__always_inline static void fpu_enable(void)
{
	irqflags_t flags;
	flags = cpu_irq_save();
	REG_CPACR |=  (0xFu << 20);
  4012ec:	4a12      	ldr	r2, [pc, #72]	; (401338 <Reset_Handler+0xbc>)
  4012ee:	6813      	ldr	r3, [r2, #0]
  4012f0:	f443 0370 	orr.w	r3, r3, #15728640	; 0xf00000
  4012f4:	6013      	str	r3, [r2, #0]
  __ASM volatile ("dsb 0xF":::"memory");
  4012f6:	f3bf 8f4f 	dsb	sy
  __ASM volatile ("isb 0xF":::"memory");
  4012fa:	f3bf 8f6f 	isb	sy
	return (flags);
}

static inline void cpu_irq_restore(irqflags_t flags)
{
	if (cpu_irq_is_enabled_flags(flags))
  4012fe:	b129      	cbz	r1, 40130c <Reset_Handler+0x90>
		cpu_irq_enable();
  401300:	2201      	movs	r2, #1
  401302:	4b0c      	ldr	r3, [pc, #48]	; (401334 <Reset_Handler+0xb8>)
  401304:	701a      	strb	r2, [r3, #0]
  __ASM volatile ("dmb 0xF":::"memory");
  401306:	f3bf 8f5f 	dmb	sy
  __ASM volatile ("cpsie i" : : : "memory");
  40130a:	b662      	cpsie	i
#if __FPU_USED
	fpu_enable();
#endif

	/* Initialize the C library */
	__libc_init_array();
  40130c:	4b0b      	ldr	r3, [pc, #44]	; (40133c <Reset_Handler+0xc0>)
  40130e:	4798      	blx	r3

	/* Branch to main function */
	main();
  401310:	4b0b      	ldr	r3, [pc, #44]	; (401340 <Reset_Handler+0xc4>)
  401312:	4798      	blx	r3
  401314:	e7fe      	b.n	401314 <Reset_Handler+0x98>
  401316:	bf00      	nop
  401318:	20000000 	.word	0x20000000
  40131c:	00401d38 	.word	0x00401d38
  401320:	20000434 	.word	0x20000434
  401324:	20000540 	.word	0x20000540
  401328:	20000434 	.word	0x20000434
  40132c:	e000ed00 	.word	0xe000ed00
  401330:	00400000 	.word	0x00400000
  401334:	20000000 	.word	0x20000000
  401338:	e000ed88 	.word	0xe000ed88
  40133c:	004019fd 	.word	0x004019fd
  401340:	004014c5 	.word	0x004014c5

00401344 <SystemCoreClockUpdate>:
}

void SystemCoreClockUpdate( void )
{
	/* Determine clock frequency according to clock register values */
	switch (PMC->PMC_MCKR & (uint32_t) PMC_MCKR_CSS_Msk) {
  401344:	4b3b      	ldr	r3, [pc, #236]	; (401434 <SystemCoreClockUpdate+0xf0>)
  401346:	6b1b      	ldr	r3, [r3, #48]	; 0x30
  401348:	f003 0303 	and.w	r3, r3, #3
  40134c:	2b01      	cmp	r3, #1
  40134e:	d01d      	beq.n	40138c <SystemCoreClockUpdate+0x48>
  401350:	b183      	cbz	r3, 401374 <SystemCoreClockUpdate+0x30>
  401352:	2b02      	cmp	r3, #2
  401354:	d036      	beq.n	4013c4 <SystemCoreClockUpdate+0x80>

	default:
		break;
	}

	if ((PMC->PMC_MCKR & PMC_MCKR_PRES_Msk) == PMC_MCKR_PRES_CLK_3) {
  401356:	4b37      	ldr	r3, [pc, #220]	; (401434 <SystemCoreClockUpdate+0xf0>)
  401358:	6b1b      	ldr	r3, [r3, #48]	; 0x30
  40135a:	f003 0370 	and.w	r3, r3, #112	; 0x70
  40135e:	2b70      	cmp	r3, #112	; 0x70
  401360:	d05f      	beq.n	401422 <SystemCoreClockUpdate+0xde>
		SystemCoreClock /= 3U;
	} else {
		SystemCoreClock >>= ((PMC->PMC_MCKR & PMC_MCKR_PRES_Msk) >>
  401362:	4b34      	ldr	r3, [pc, #208]	; (401434 <SystemCoreClockUpdate+0xf0>)
  401364:	6b1a      	ldr	r2, [r3, #48]	; 0x30
  401366:	4934      	ldr	r1, [pc, #208]	; (401438 <SystemCoreClockUpdate+0xf4>)
  401368:	f3c2 1202 	ubfx	r2, r2, #4, #3
  40136c:	680b      	ldr	r3, [r1, #0]
  40136e:	40d3      	lsrs	r3, r2
  401370:	600b      	str	r3, [r1, #0]
  401372:	4770      	bx	lr
		if ( SUPC->SUPC_SR & SUPC_SR_OSCSEL ) {
  401374:	4b31      	ldr	r3, [pc, #196]	; (40143c <SystemCoreClockUpdate+0xf8>)
  401376:	695b      	ldr	r3, [r3, #20]
  401378:	f013 0f80 	tst.w	r3, #128	; 0x80
			SystemCoreClock = CHIP_FREQ_XTAL_32K;
  40137c:	bf14      	ite	ne
  40137e:	f44f 4200 	movne.w	r2, #32768	; 0x8000
			SystemCoreClock = CHIP_FREQ_SLCK_RC;
  401382:	f44f 42fa 	moveq.w	r2, #32000	; 0x7d00
  401386:	4b2c      	ldr	r3, [pc, #176]	; (401438 <SystemCoreClockUpdate+0xf4>)
  401388:	601a      	str	r2, [r3, #0]
  40138a:	e7e4      	b.n	401356 <SystemCoreClockUpdate+0x12>
		if ( PMC->CKGR_MOR & CKGR_MOR_MOSCSEL ) {
  40138c:	4b29      	ldr	r3, [pc, #164]	; (401434 <SystemCoreClockUpdate+0xf0>)
  40138e:	6a1b      	ldr	r3, [r3, #32]
  401390:	f013 7f80 	tst.w	r3, #16777216	; 0x1000000
  401394:	d003      	beq.n	40139e <SystemCoreClockUpdate+0x5a>
			SystemCoreClock = CHIP_FREQ_XTAL_12M;
  401396:	4a2a      	ldr	r2, [pc, #168]	; (401440 <SystemCoreClockUpdate+0xfc>)
  401398:	4b27      	ldr	r3, [pc, #156]	; (401438 <SystemCoreClockUpdate+0xf4>)
  40139a:	601a      	str	r2, [r3, #0]
  40139c:	e7db      	b.n	401356 <SystemCoreClockUpdate+0x12>
			SystemCoreClock = CHIP_FREQ_MAINCK_RC_4MHZ;
  40139e:	4a29      	ldr	r2, [pc, #164]	; (401444 <SystemCoreClockUpdate+0x100>)
  4013a0:	4b25      	ldr	r3, [pc, #148]	; (401438 <SystemCoreClockUpdate+0xf4>)
  4013a2:	601a      	str	r2, [r3, #0]
			switch ( PMC->CKGR_MOR & CKGR_MOR_MOSCRCF_Msk ) {
  4013a4:	4b23      	ldr	r3, [pc, #140]	; (401434 <SystemCoreClockUpdate+0xf0>)
  4013a6:	6a1b      	ldr	r3, [r3, #32]
  4013a8:	f003 0370 	and.w	r3, r3, #112	; 0x70
  4013ac:	2b10      	cmp	r3, #16
  4013ae:	d005      	beq.n	4013bc <SystemCoreClockUpdate+0x78>
  4013b0:	2b20      	cmp	r3, #32
  4013b2:	d1d0      	bne.n	401356 <SystemCoreClockUpdate+0x12>
				SystemCoreClock *= 3U;
  4013b4:	4a22      	ldr	r2, [pc, #136]	; (401440 <SystemCoreClockUpdate+0xfc>)
  4013b6:	4b20      	ldr	r3, [pc, #128]	; (401438 <SystemCoreClockUpdate+0xf4>)
  4013b8:	601a      	str	r2, [r3, #0]
				break;
  4013ba:	e7cc      	b.n	401356 <SystemCoreClockUpdate+0x12>
				SystemCoreClock *= 2U;
  4013bc:	4a22      	ldr	r2, [pc, #136]	; (401448 <SystemCoreClockUpdate+0x104>)
  4013be:	4b1e      	ldr	r3, [pc, #120]	; (401438 <SystemCoreClockUpdate+0xf4>)
  4013c0:	601a      	str	r2, [r3, #0]
				break;
  4013c2:	e7c8      	b.n	401356 <SystemCoreClockUpdate+0x12>
		if ( PMC->CKGR_MOR & CKGR_MOR_MOSCSEL ) {
  4013c4:	4b1b      	ldr	r3, [pc, #108]	; (401434 <SystemCoreClockUpdate+0xf0>)
  4013c6:	6a1b      	ldr	r3, [r3, #32]
  4013c8:	f013 7f80 	tst.w	r3, #16777216	; 0x1000000
  4013cc:	d016      	beq.n	4013fc <SystemCoreClockUpdate+0xb8>
			SystemCoreClock = CHIP_FREQ_XTAL_12M ;
  4013ce:	4a1c      	ldr	r2, [pc, #112]	; (401440 <SystemCoreClockUpdate+0xfc>)
  4013d0:	4b19      	ldr	r3, [pc, #100]	; (401438 <SystemCoreClockUpdate+0xf4>)
  4013d2:	601a      	str	r2, [r3, #0]
		if ((uint32_t) (PMC->PMC_MCKR & (uint32_t) PMC_MCKR_CSS_Msk) == PMC_MCKR_CSS_PLLA_CLK)
  4013d4:	4b17      	ldr	r3, [pc, #92]	; (401434 <SystemCoreClockUpdate+0xf0>)
  4013d6:	6b1b      	ldr	r3, [r3, #48]	; 0x30
  4013d8:	f003 0303 	and.w	r3, r3, #3
  4013dc:	2b02      	cmp	r3, #2
  4013de:	d1ba      	bne.n	401356 <SystemCoreClockUpdate+0x12>
			SystemCoreClock *= ((((PMC->CKGR_PLLAR) & CKGR_PLLAR_MULA_Msk) >> CKGR_PLLAR_MULA_Pos) + 1U);
  4013e0:	4a14      	ldr	r2, [pc, #80]	; (401434 <SystemCoreClockUpdate+0xf0>)
  4013e2:	6a91      	ldr	r1, [r2, #40]	; 0x28
			SystemCoreClock /= ((((PMC->CKGR_PLLAR) & CKGR_PLLAR_DIVA_Msk) >> CKGR_PLLAR_DIVA_Pos));
  4013e4:	6a92      	ldr	r2, [r2, #40]	; 0x28
  4013e6:	4814      	ldr	r0, [pc, #80]	; (401438 <SystemCoreClockUpdate+0xf4>)
			SystemCoreClock *= ((((PMC->CKGR_PLLAR) & CKGR_PLLAR_MULA_Msk) >> CKGR_PLLAR_MULA_Pos) + 1U);
  4013e8:	f3c1 410a 	ubfx	r1, r1, #16, #11
  4013ec:	6803      	ldr	r3, [r0, #0]
  4013ee:	fb01 3303 	mla	r3, r1, r3, r3
			SystemCoreClock /= ((((PMC->CKGR_PLLAR) & CKGR_PLLAR_DIVA_Msk) >> CKGR_PLLAR_DIVA_Pos));
  4013f2:	b2d2      	uxtb	r2, r2
  4013f4:	fbb3 f3f2 	udiv	r3, r3, r2
  4013f8:	6003      	str	r3, [r0, #0]
  4013fa:	e7ac      	b.n	401356 <SystemCoreClockUpdate+0x12>
			SystemCoreClock = CHIP_FREQ_MAINCK_RC_4MHZ;
  4013fc:	4a11      	ldr	r2, [pc, #68]	; (401444 <SystemCoreClockUpdate+0x100>)
  4013fe:	4b0e      	ldr	r3, [pc, #56]	; (401438 <SystemCoreClockUpdate+0xf4>)
  401400:	601a      	str	r2, [r3, #0]
			switch ( PMC->CKGR_MOR & CKGR_MOR_MOSCRCF_Msk ) {
  401402:	4b0c      	ldr	r3, [pc, #48]	; (401434 <SystemCoreClockUpdate+0xf0>)
  401404:	6a1b      	ldr	r3, [r3, #32]
  401406:	f003 0370 	and.w	r3, r3, #112	; 0x70
  40140a:	2b10      	cmp	r3, #16
  40140c:	d005      	beq.n	40141a <SystemCoreClockUpdate+0xd6>
  40140e:	2b20      	cmp	r3, #32
  401410:	d1e0      	bne.n	4013d4 <SystemCoreClockUpdate+0x90>
				SystemCoreClock *= 3U;
  401412:	4a0b      	ldr	r2, [pc, #44]	; (401440 <SystemCoreClockUpdate+0xfc>)
  401414:	4b08      	ldr	r3, [pc, #32]	; (401438 <SystemCoreClockUpdate+0xf4>)
  401416:	601a      	str	r2, [r3, #0]
				break;
  401418:	e7dc      	b.n	4013d4 <SystemCoreClockUpdate+0x90>
				SystemCoreClock *= 2U;
  40141a:	4a0b      	ldr	r2, [pc, #44]	; (401448 <SystemCoreClockUpdate+0x104>)
  40141c:	4b06      	ldr	r3, [pc, #24]	; (401438 <SystemCoreClockUpdate+0xf4>)
  40141e:	601a      	str	r2, [r3, #0]
				break;
  401420:	e7d8      	b.n	4013d4 <SystemCoreClockUpdate+0x90>
		SystemCoreClock /= 3U;
  401422:	4a05      	ldr	r2, [pc, #20]	; (401438 <SystemCoreClockUpdate+0xf4>)
  401424:	6813      	ldr	r3, [r2, #0]
  401426:	4909      	ldr	r1, [pc, #36]	; (40144c <SystemCoreClockUpdate+0x108>)
  401428:	fba1 1303 	umull	r1, r3, r1, r3
  40142c:	085b      	lsrs	r3, r3, #1
  40142e:	6013      	str	r3, [r2, #0]
  401430:	4770      	bx	lr
  401432:	bf00      	nop
  401434:	400e0400 	.word	0x400e0400
  401438:	20000004 	.word	0x20000004
  40143c:	400e1810 	.word	0x400e1810
  401440:	00b71b00 	.word	0x00b71b00
  401444:	003d0900 	.word	0x003d0900
  401448:	007a1200 	.word	0x007a1200
  40144c:	aaaaaaab 	.word	0xaaaaaaab

00401450 <system_init_flash>:
 * Initialize flash.
 */
void system_init_flash( uint32_t ul_clk )
{
	/* Set FWS for embedded Flash access according to operating frequency */
	if ( ul_clk < CHIP_FREQ_FWS_0 ) {
  401450:	4b12      	ldr	r3, [pc, #72]	; (40149c <system_init_flash+0x4c>)
  401452:	4298      	cmp	r0, r3
  401454:	d911      	bls.n	40147a <system_init_flash+0x2a>
		EFC->EEFC_FMR = EEFC_FMR_FWS(0)|EEFC_FMR_CLOE;
	} else {
		if (ul_clk < CHIP_FREQ_FWS_1) {
  401456:	4b12      	ldr	r3, [pc, #72]	; (4014a0 <system_init_flash+0x50>)
  401458:	4298      	cmp	r0, r3
  40145a:	d913      	bls.n	401484 <system_init_flash+0x34>
			EFC->EEFC_FMR = EEFC_FMR_FWS(1)|EEFC_FMR_CLOE;
		} else {
			if (ul_clk < CHIP_FREQ_FWS_2) {
  40145c:	4b11      	ldr	r3, [pc, #68]	; (4014a4 <system_init_flash+0x54>)
  40145e:	4298      	cmp	r0, r3
  401460:	d914      	bls.n	40148c <system_init_flash+0x3c>
				EFC->EEFC_FMR = EEFC_FMR_FWS(2)|EEFC_FMR_CLOE;
			} else {
				if ( ul_clk < CHIP_FREQ_FWS_3 ) {
  401462:	4b11      	ldr	r3, [pc, #68]	; (4014a8 <system_init_flash+0x58>)
  401464:	4298      	cmp	r0, r3
  401466:	d915      	bls.n	401494 <system_init_flash+0x44>
					EFC->EEFC_FMR = EEFC_FMR_FWS(3)|EEFC_FMR_CLOE;
				} else {
					if ( ul_clk < CHIP_FREQ_FWS_4 ) {
  401468:	4b10      	ldr	r3, [pc, #64]	; (4014ac <system_init_flash+0x5c>)
  40146a:	4298      	cmp	r0, r3
						EFC->EEFC_FMR = EEFC_FMR_FWS(4)|EEFC_FMR_CLOE;
  40146c:	bf94      	ite	ls
  40146e:	f04f 2204 	movls.w	r2, #67109888	; 0x4000400
					} else {
						EFC->EEFC_FMR = EEFC_FMR_FWS(5)|EEFC_FMR_CLOE;
  401472:	4a0f      	ldrhi	r2, [pc, #60]	; (4014b0 <system_init_flash+0x60>)
  401474:	4b0f      	ldr	r3, [pc, #60]	; (4014b4 <system_init_flash+0x64>)
  401476:	601a      	str	r2, [r3, #0]
  401478:	4770      	bx	lr
		EFC->EEFC_FMR = EEFC_FMR_FWS(0)|EEFC_FMR_CLOE;
  40147a:	f04f 6280 	mov.w	r2, #67108864	; 0x4000000
  40147e:	4b0d      	ldr	r3, [pc, #52]	; (4014b4 <system_init_flash+0x64>)
  401480:	601a      	str	r2, [r3, #0]
  401482:	4770      	bx	lr
			EFC->EEFC_FMR = EEFC_FMR_FWS(1)|EEFC_FMR_CLOE;
  401484:	4a0c      	ldr	r2, [pc, #48]	; (4014b8 <system_init_flash+0x68>)
  401486:	4b0b      	ldr	r3, [pc, #44]	; (4014b4 <system_init_flash+0x64>)
  401488:	601a      	str	r2, [r3, #0]
  40148a:	4770      	bx	lr
				EFC->EEFC_FMR = EEFC_FMR_FWS(2)|EEFC_FMR_CLOE;
  40148c:	4a0b      	ldr	r2, [pc, #44]	; (4014bc <system_init_flash+0x6c>)
  40148e:	4b09      	ldr	r3, [pc, #36]	; (4014b4 <system_init_flash+0x64>)
  401490:	601a      	str	r2, [r3, #0]
  401492:	4770      	bx	lr
					EFC->EEFC_FMR = EEFC_FMR_FWS(3)|EEFC_FMR_CLOE;
  401494:	4a0a      	ldr	r2, [pc, #40]	; (4014c0 <system_init_flash+0x70>)
  401496:	4b07      	ldr	r3, [pc, #28]	; (4014b4 <system_init_flash+0x64>)
  401498:	601a      	str	r2, [r3, #0]
  40149a:	4770      	bx	lr
  40149c:	01312cff 	.word	0x01312cff
  4014a0:	026259ff 	.word	0x026259ff
  4014a4:	039386ff 	.word	0x039386ff
  4014a8:	04c4b3ff 	.word	0x04c4b3ff
  4014ac:	05f5e0ff 	.word	0x05f5e0ff
  4014b0:	04000500 	.word	0x04000500
  4014b4:	400e0a00 	.word	0x400e0a00
  4014b8:	04000100 	.word	0x04000100
  4014bc:	04000200 	.word	0x04000200
  4014c0:	04000300 	.word	0x04000300

004014c4 <main>:
/* Function definitions ----------------------------------------------- */
/**
 * @brief Entry
 */
int main(void)
{
  4014c4:	b508      	push	{r3, lr}
  sys_init();
  4014c6:	4b02      	ldr	r3, [pc, #8]	; (4014d0 <main+0xc>)
  4014c8:	4798      	blx	r3

  while (1)
  {
    sys_run();
  4014ca:	4c02      	ldr	r4, [pc, #8]	; (4014d4 <main+0x10>)
  4014cc:	47a0      	blx	r4
  4014ce:	e7fd      	b.n	4014cc <main+0x8>
  4014d0:	00400245 	.word	0x00400245
  4014d4:	00400269 	.word	0x00400269

004014d8 <sysclk_init>:
	pmc_disable_udpck();
}
#endif // CONFIG_USBCLK_SOURCE

void sysclk_init(void)
{
  4014d8:	b510      	push	{r4, lr}
	/* Set flash wait state to max in case the below clock switching. */
	system_init_flash(CHIP_FREQ_CPU_MAX);
  4014da:	480e      	ldr	r0, [pc, #56]	; (401514 <sysclk_init+0x3c>)
  4014dc:	4b0e      	ldr	r3, [pc, #56]	; (401518 <sysclk_init+0x40>)
  4014de:	4798      	blx	r3
		pmc_switch_mainck_to_fastrc(CKGR_MOR_MOSCRCF_12_MHz);
		break;


	case OSC_MAINCK_XTAL:
		pmc_switch_mainck_to_xtal(PMC_OSC_XTAL,
  4014e0:	213e      	movs	r1, #62	; 0x3e
  4014e2:	2000      	movs	r0, #0
  4014e4:	4b0d      	ldr	r3, [pc, #52]	; (40151c <sysclk_init+0x44>)
  4014e6:	4798      	blx	r3
	case OSC_MAINCK_4M_RC:
	case OSC_MAINCK_8M_RC:
	case OSC_MAINCK_12M_RC:
	case OSC_MAINCK_XTAL:
	case OSC_MAINCK_BYPASS:
		return pmc_osc_is_ready_mainck();
  4014e8:	4c0d      	ldr	r4, [pc, #52]	; (401520 <sysclk_init+0x48>)
  4014ea:	47a0      	blx	r4
 *
 * \param id A number identifying the oscillator to wait for.
 */
static inline void osc_wait_ready(uint8_t id)
{
	while (!osc_is_ready(id)) {
  4014ec:	2800      	cmp	r0, #0
  4014ee:	d0fc      	beq.n	4014ea <sysclk_init+0x12>
static inline void pll_enable(const struct pll_config *p_cfg, uint32_t ul_pll_id)
{
	Assert(ul_pll_id < NR_PLLS);

	if (ul_pll_id == PLLA_ID) {
		pmc_disable_pllack(); // Always stop PLL first!
  4014f0:	4b0c      	ldr	r3, [pc, #48]	; (401524 <sysclk_init+0x4c>)
  4014f2:	4798      	blx	r3
		PMC->CKGR_PLLAR = CKGR_PLLAR_ONE | p_cfg->ctrl;
  4014f4:	4a0c      	ldr	r2, [pc, #48]	; (401528 <sysclk_init+0x50>)
  4014f6:	4b0d      	ldr	r3, [pc, #52]	; (40152c <sysclk_init+0x54>)
  4014f8:	629a      	str	r2, [r3, #40]	; 0x28
static inline uint32_t pll_is_locked(uint32_t ul_pll_id)
{
	Assert(ul_pll_id < NR_PLLS);

	UNUSED(ul_pll_id);
	return pmc_is_locked_pllack();
  4014fa:	4c0d      	ldr	r4, [pc, #52]	; (401530 <sysclk_init+0x58>)
  4014fc:	47a0      	blx	r4
 */
static inline int pll_wait_for_lock(unsigned int pll_id)
{
	Assert(pll_id < NR_PLLS);

	while (!pll_is_locked(pll_id)) {
  4014fe:	2800      	cmp	r0, #0
  401500:	d0fc      	beq.n	4014fc <sysclk_init+0x24>

		pll_enable_source(CONFIG_PLL0_SOURCE);
		pll_config_defaults(&pllcfg, 0);
		pll_enable(&pllcfg, 0);
		pll_wait_for_lock(0);
		pmc_switch_mck_to_pllack(CONFIG_SYSCLK_PRES);
  401502:	2010      	movs	r0, #16
  401504:	4b0b      	ldr	r3, [pc, #44]	; (401534 <sysclk_init+0x5c>)
  401506:	4798      	blx	r3
	}
#endif

	/* Update the SystemFrequency variable */
	SystemCoreClockUpdate();
  401508:	4b0b      	ldr	r3, [pc, #44]	; (401538 <sysclk_init+0x60>)
  40150a:	4798      	blx	r3

	/* Set a flash wait state depending on the new cpu frequency */
	system_init_flash(sysclk_get_cpu_hz());
  40150c:	480b      	ldr	r0, [pc, #44]	; (40153c <sysclk_init+0x64>)
  40150e:	4b02      	ldr	r3, [pc, #8]	; (401518 <sysclk_init+0x40>)
  401510:	4798      	blx	r3
  401512:	bd10      	pop	{r4, pc}
  401514:	07270e00 	.word	0x07270e00
  401518:	00401451 	.word	0x00401451
  40151c:	00401925 	.word	0x00401925
  401520:	00401979 	.word	0x00401979
  401524:	00401989 	.word	0x00401989
  401528:	200f3f01 	.word	0x200f3f01
  40152c:	400e0400 	.word	0x400e0400
  401530:	00401999 	.word	0x00401999
  401534:	004018c1 	.word	0x004018c1
  401538:	00401345 	.word	0x00401345
  40153c:	05b8d800 	.word	0x05b8d800

00401540 <pio_handler_process>:
 *
 * \param p_pio PIO controller base address.
 * \param ul_id PIO controller ID.
 */
void pio_handler_process(Pio *p_pio, uint32_t ul_id)
{
  401540:	e92d 43f8 	stmdb	sp!, {r3, r4, r5, r6, r7, r8, r9, lr}
  401544:	4681      	mov	r9, r0
  401546:	460f      	mov	r7, r1
	uint32_t status;
	uint32_t i;

	/* Read PIO controller status */
	status = pio_get_interrupt_status(p_pio);
  401548:	4b12      	ldr	r3, [pc, #72]	; (401594 <pio_handler_process+0x54>)
  40154a:	4798      	blx	r3
  40154c:	4605      	mov	r5, r0
	status &= pio_get_interrupt_mask(p_pio);
  40154e:	4648      	mov	r0, r9
  401550:	4b11      	ldr	r3, [pc, #68]	; (401598 <pio_handler_process+0x58>)
  401552:	4798      	blx	r3

	/* Check pending events */
	if (status != 0) {
  401554:	4005      	ands	r5, r0
  401556:	d013      	beq.n	401580 <pio_handler_process+0x40>
  401558:	4c10      	ldr	r4, [pc, #64]	; (40159c <pio_handler_process+0x5c>)
  40155a:	f104 0660 	add.w	r6, r4, #96	; 0x60
  40155e:	e003      	b.n	401568 <pio_handler_process+0x28>
							gs_interrupt_sources[i].mask);
					status &= ~(gs_interrupt_sources[i].mask);
				}
			}
			i++;
			if (i >= MAX_INTERRUPT_SOURCES) {
  401560:	42b4      	cmp	r4, r6
  401562:	d00d      	beq.n	401580 <pio_handler_process+0x40>
  401564:	3410      	adds	r4, #16
		while (status != 0) {
  401566:	b15d      	cbz	r5, 401580 <pio_handler_process+0x40>
			if (gs_interrupt_sources[i].id == ul_id) {
  401568:	6820      	ldr	r0, [r4, #0]
  40156a:	42b8      	cmp	r0, r7
  40156c:	d1f8      	bne.n	401560 <pio_handler_process+0x20>
				if ((status & gs_interrupt_sources[i].mask) != 0) {
  40156e:	6861      	ldr	r1, [r4, #4]
  401570:	4229      	tst	r1, r5
  401572:	d0f5      	beq.n	401560 <pio_handler_process+0x20>
					gs_interrupt_sources[i].handler(gs_interrupt_sources[i].id,
  401574:	68e3      	ldr	r3, [r4, #12]
  401576:	4798      	blx	r3
					status &= ~(gs_interrupt_sources[i].mask);
  401578:	6863      	ldr	r3, [r4, #4]
  40157a:	ea25 0503 	bic.w	r5, r5, r3
  40157e:	e7ef      	b.n	401560 <pio_handler_process+0x20>
		}
	}

	/* Check capture events */
#if (SAM3S || SAM4S || SAM4E)
	if (pio_capture_enable_flag) {
  401580:	4b07      	ldr	r3, [pc, #28]	; (4015a0 <pio_handler_process+0x60>)
  401582:	681b      	ldr	r3, [r3, #0]
  401584:	b123      	cbz	r3, 401590 <pio_handler_process+0x50>
		if (pio_capture_handler) {
  401586:	4b07      	ldr	r3, [pc, #28]	; (4015a4 <pio_handler_process+0x64>)
  401588:	681b      	ldr	r3, [r3, #0]
  40158a:	b10b      	cbz	r3, 401590 <pio_handler_process+0x50>
			pio_capture_handler(p_pio);
  40158c:	4648      	mov	r0, r9
  40158e:	4798      	blx	r3
  401590:	e8bd 83f8 	ldmia.w	sp!, {r3, r4, r5, r6, r7, r8, r9, pc}
  401594:	004018b7 	.word	0x004018b7
  401598:	004018bb 	.word	0x004018bb
  40159c:	20000484 	.word	0x20000484
  4015a0:	20000518 	.word	0x20000518
  4015a4:	200004f4 	.word	0x200004f4

004015a8 <PIOA_Handler>:
/**
 * \brief Parallel IO Controller A interrupt handler.
 * Redefined PIOA interrupt handler for NVIC interrupt table.
 */
void PIOA_Handler(void)
{
  4015a8:	b508      	push	{r3, lr}
	pio_handler_process(PIOA, ID_PIOA);
  4015aa:	2109      	movs	r1, #9
  4015ac:	4801      	ldr	r0, [pc, #4]	; (4015b4 <PIOA_Handler+0xc>)
  4015ae:	4b02      	ldr	r3, [pc, #8]	; (4015b8 <PIOA_Handler+0x10>)
  4015b0:	4798      	blx	r3
  4015b2:	bd08      	pop	{r3, pc}
  4015b4:	400e0e00 	.word	0x400e0e00
  4015b8:	00401541 	.word	0x00401541

004015bc <PIOB_Handler>:
/**
 * \brief Parallel IO Controller B interrupt handler
 * Redefined PIOB interrupt handler for NVIC interrupt table.
 */
void PIOB_Handler(void)
{
  4015bc:	b508      	push	{r3, lr}
    pio_handler_process(PIOB, ID_PIOB);
  4015be:	210a      	movs	r1, #10
  4015c0:	4801      	ldr	r0, [pc, #4]	; (4015c8 <PIOB_Handler+0xc>)
  4015c2:	4b02      	ldr	r3, [pc, #8]	; (4015cc <PIOB_Handler+0x10>)
  4015c4:	4798      	blx	r3
  4015c6:	bd08      	pop	{r3, pc}
  4015c8:	400e1000 	.word	0x400e1000
  4015cc:	00401541 	.word	0x00401541

004015d0 <PIOC_Handler>:
/**
 * \brief Parallel IO Controller C interrupt handler.
 * Redefined PIOC interrupt handler for NVIC interrupt table.
 */
void PIOC_Handler(void)
{
  4015d0:	b508      	push	{r3, lr}
	pio_handler_process(PIOC, ID_PIOC);
  4015d2:	210b      	movs	r1, #11
  4015d4:	4801      	ldr	r0, [pc, #4]	; (4015dc <PIOC_Handler+0xc>)
  4015d6:	4b02      	ldr	r3, [pc, #8]	; (4015e0 <PIOC_Handler+0x10>)
  4015d8:	4798      	blx	r3
  4015da:	bd08      	pop	{r3, pc}
  4015dc:	400e1200 	.word	0x400e1200
  4015e0:	00401541 	.word	0x00401541

004015e4 <PIOD_Handler>:
/**
 * \brief Parallel IO Controller D interrupt handler.
 * Redefined PIOD interrupt handler for NVIC interrupt table.
 */
void PIOD_Handler(void)
{
  4015e4:	b508      	push	{r3, lr}
	pio_handler_process(PIOD, ID_PIOD);
  4015e6:	210c      	movs	r1, #12
  4015e8:	4801      	ldr	r0, [pc, #4]	; (4015f0 <PIOD_Handler+0xc>)
  4015ea:	4b02      	ldr	r3, [pc, #8]	; (4015f4 <PIOD_Handler+0x10>)
  4015ec:	4798      	blx	r3
  4015ee:	bd08      	pop	{r3, pc}
  4015f0:	400e1400 	.word	0x400e1400
  4015f4:	00401541 	.word	0x00401541

004015f8 <PIOE_Handler>:
/**
 * \brief Parallel IO Controller E interrupt handler.
 * Redefined PIOE interrupt handler for NVIC interrupt table.
 */
void PIOE_Handler(void)
{
  4015f8:	b508      	push	{r3, lr}
	pio_handler_process(PIOE, ID_PIOE);
  4015fa:	210d      	movs	r1, #13
  4015fc:	4801      	ldr	r0, [pc, #4]	; (401604 <PIOE_Handler+0xc>)
  4015fe:	4b02      	ldr	r3, [pc, #8]	; (401608 <PIOE_Handler+0x10>)
  401600:	4798      	blx	r3
  401602:	bd08      	pop	{r3, pc}
  401604:	400e1600 	.word	0x400e1600
  401608:	00401541 	.word	0x00401541

0040160c <can_global_send_transfer_cmd>:
 */
void can_global_send_transfer_cmd(Can *p_can, uint8_t uc_mask)
{
	uint32_t ul_reg;

	ul_reg = p_can->CAN_TCR & ((uint32_t) ~GLOBAL_MAILBOX_MASK);
  40160c:	6a43      	ldr	r3, [r0, #36]	; 0x24
  40160e:	f023 03ff 	bic.w	r3, r3, #255	; 0xff
	p_can->CAN_TCR = ul_reg | uc_mask;
  401612:	4319      	orrs	r1, r3
  401614:	6241      	str	r1, [r0, #36]	; 0x24
  401616:	4770      	bx	lr

00401618 <can_mailbox_init>:
 */
void can_mailbox_init(Can *p_can, can_mb_conf_t *p_mailbox)
{
	uint8_t uc_index;

	uc_index = (uint8_t)p_mailbox->ul_mb_idx;
  401618:	680b      	ldr	r3, [r1, #0]
	/* Check the object type of the mailbox. If it's used to disable the
	 * mailbox, reset the whole mailbox. */
	if (!p_mailbox->uc_obj_type) {
  40161a:	790a      	ldrb	r2, [r1, #4]
  40161c:	b31a      	cbz	r2, 401666 <can_mailbox_init+0x4e>
{
  40161e:	b430      	push	{r4, r5}
  401620:	b2db      	uxtb	r3, r3
  401622:	eb00 1243 	add.w	r2, r0, r3, lsl #5
		p_can->CAN_MB[uc_index].CAN_MCR = 0;
		return;
	}

	/* Set the priority in Transmit mode. */
	p_can->CAN_MB[uc_index].CAN_MMR = (p_can->CAN_MB[uc_index].CAN_MMR &
  401626:	f8d2 4200 	ldr.w	r4, [r2, #512]	; 0x200
			~CAN_MMR_PRIOR_Msk) |
			(p_mailbox->uc_tx_prio << CAN_MMR_PRIOR_Pos);
  40162a:	79cd      	ldrb	r5, [r1, #7]
	p_can->CAN_MB[uc_index].CAN_MMR = (p_can->CAN_MB[uc_index].CAN_MMR &
  40162c:	f424 2470 	bic.w	r4, r4, #983040	; 0xf0000
			~CAN_MMR_PRIOR_Msk) |
  401630:	ea44 4405 	orr.w	r4, r4, r5, lsl #16
	p_can->CAN_MB[uc_index].CAN_MMR = (p_can->CAN_MB[uc_index].CAN_MMR &
  401634:	f8c2 4200 	str.w	r4, [r2, #512]	; 0x200

	/* Set the message ID and message acceptance mask for the mailbox in
	 * other modes. */
	if (p_mailbox->uc_id_ver) {
  401638:	794c      	ldrb	r4, [r1, #5]
  40163a:	b32c      	cbz	r4, 401688 <can_mailbox_init+0x70>
		p_can->CAN_MB[uc_index].CAN_MAM = p_mailbox->ul_id_msk |
  40163c:	68cc      	ldr	r4, [r1, #12]
  40163e:	f044 5400 	orr.w	r4, r4, #536870912	; 0x20000000
  401642:	f8c2 4204 	str.w	r4, [r2, #516]	; 0x204
				CAN_MAM_MIDE;
		p_can->CAN_MB[uc_index].CAN_MID = p_mailbox->ul_id |
  401646:	690c      	ldr	r4, [r1, #16]
  401648:	f044 5400 	orr.w	r4, r4, #536870912	; 0x20000000
  40164c:	f8c2 4208 	str.w	r4, [r2, #520]	; 0x208
		p_can->CAN_MB[uc_index].CAN_MAM = p_mailbox->ul_id_msk;
		p_can->CAN_MB[uc_index].CAN_MID = p_mailbox->ul_id;
	}

	/* Set up mailbox in one of the five different modes. */
	p_can->CAN_MB[uc_index].CAN_MMR = (p_can->CAN_MB[uc_index].CAN_MMR &
  401650:	f8d2 3200 	ldr.w	r3, [r2, #512]	; 0x200
			~CAN_MMR_MOT_Msk) |
			(p_mailbox->uc_obj_type << CAN_MMR_MOT_Pos);
  401654:	7909      	ldrb	r1, [r1, #4]
	p_can->CAN_MB[uc_index].CAN_MMR = (p_can->CAN_MB[uc_index].CAN_MMR &
  401656:	f023 63e0 	bic.w	r3, r3, #117440512	; 0x7000000
			~CAN_MMR_MOT_Msk) |
  40165a:	ea43 6301 	orr.w	r3, r3, r1, lsl #24
	p_can->CAN_MB[uc_index].CAN_MMR = (p_can->CAN_MB[uc_index].CAN_MMR &
  40165e:	f8c2 3200 	str.w	r3, [r2, #512]	; 0x200
}
  401662:	bc30      	pop	{r4, r5}
  401664:	4770      	bx	lr
  401666:	b2db      	uxtb	r3, r3
  401668:	eb00 1043 	add.w	r0, r0, r3, lsl #5
		p_can->CAN_MB[uc_index].CAN_MMR = 0;
  40166c:	2300      	movs	r3, #0
  40166e:	f8c0 3200 	str.w	r3, [r0, #512]	; 0x200
		p_can->CAN_MB[uc_index].CAN_MAM = 0;
  401672:	f8c0 3204 	str.w	r3, [r0, #516]	; 0x204
		p_can->CAN_MB[uc_index].CAN_MID = 0;
  401676:	f8c0 3208 	str.w	r3, [r0, #520]	; 0x208
		p_can->CAN_MB[uc_index].CAN_MDL = 0;
  40167a:	f8c0 3214 	str.w	r3, [r0, #532]	; 0x214
		p_can->CAN_MB[uc_index].CAN_MDH = 0;
  40167e:	f8c0 3218 	str.w	r3, [r0, #536]	; 0x218
		p_can->CAN_MB[uc_index].CAN_MCR = 0;
  401682:	f8c0 321c 	str.w	r3, [r0, #540]	; 0x21c
		return;
  401686:	4770      	bx	lr
		p_can->CAN_MB[uc_index].CAN_MAM = p_mailbox->ul_id_msk;
  401688:	68cc      	ldr	r4, [r1, #12]
  40168a:	f8c2 4204 	str.w	r4, [r2, #516]	; 0x204
		p_can->CAN_MB[uc_index].CAN_MID = p_mailbox->ul_id;
  40168e:	690c      	ldr	r4, [r1, #16]
  401690:	eb00 1343 	add.w	r3, r0, r3, lsl #5
  401694:	f8c3 4208 	str.w	r4, [r3, #520]	; 0x208
  401698:	e7da      	b.n	401650 <can_mailbox_init+0x38>

0040169a <can_mailbox_write>:
	return (p_can->CAN_MB[uc_index].CAN_MSR);
  40169a:	780b      	ldrb	r3, [r1, #0]
  40169c:	eb00 1243 	add.w	r2, r0, r3, lsl #5
  4016a0:	f8d2 2210 	ldr.w	r2, [r2, #528]	; 0x210
	uint8_t uc_index;

	uc_index = (uint8_t)p_mailbox->ul_mb_idx;
	/* Read the mailbox status firstly to check whether the mailbox is ready
	 *or not. */
	p_mailbox->ul_status = can_mailbox_get_status(p_can, uc_index);
  4016a4:	608a      	str	r2, [r1, #8]
	ul_status = p_mailbox->ul_status;
	if (!(ul_status & CAN_MSR_MRDY)) {
  4016a6:	f412 0f00 	tst.w	r2, #8388608	; 0x800000
  4016aa:	d028      	beq.n	4016fe <can_mailbox_write+0x64>
{
  4016ac:	b410      	push	{r4}
		return CAN_MAILBOX_NOT_READY;
	}

	/* Write transmit identifier. */
	if (p_mailbox->uc_id_ver) {
  4016ae:	794a      	ldrb	r2, [r1, #5]
  4016b0:	b1fa      	cbz	r2, 4016f2 <can_mailbox_write+0x58>
		p_can->CAN_MB[uc_index].CAN_MID = p_mailbox->ul_id |
  4016b2:	690a      	ldr	r2, [r1, #16]
  4016b4:	f042 5200 	orr.w	r2, r2, #536870912	; 0x20000000
  4016b8:	eb00 1443 	add.w	r4, r0, r3, lsl #5
  4016bc:	f8c4 2208 	str.w	r2, [r4, #520]	; 0x208
	} else {
		p_can->CAN_MB[uc_index].CAN_MID = p_mailbox->ul_id;
	}

	/* Write transmit data into mailbox data register. */
	p_can->CAN_MB[uc_index].CAN_MDL = p_mailbox->ul_datal;
  4016c0:	698c      	ldr	r4, [r1, #24]
  4016c2:	eb00 1243 	add.w	r2, r0, r3, lsl #5
  4016c6:	f8c2 4214 	str.w	r4, [r2, #532]	; 0x214
	if (p_mailbox->uc_length > 4) {
  4016ca:	798a      	ldrb	r2, [r1, #6]
  4016cc:	2a04      	cmp	r2, #4
  4016ce:	d904      	bls.n	4016da <can_mailbox_write+0x40>
		p_can->CAN_MB[uc_index].CAN_MDH = p_mailbox->ul_datah;
  4016d0:	69cc      	ldr	r4, [r1, #28]
  4016d2:	eb00 1243 	add.w	r2, r0, r3, lsl #5
  4016d6:	f8c2 4218 	str.w	r4, [r2, #536]	; 0x218
	}

	/* Write transmit data length into mailbox control register. */
	p_can->CAN_MB[uc_index].CAN_MCR = CAN_MCR_MDLC(p_mailbox->uc_length);
  4016da:	798a      	ldrb	r2, [r1, #6]
  4016dc:	0412      	lsls	r2, r2, #16
  4016de:	f402 2270 	and.w	r2, r2, #983040	; 0xf0000
  4016e2:	eb00 1043 	add.w	r0, r0, r3, lsl #5
  4016e6:	f8c0 221c 	str.w	r2, [r0, #540]	; 0x21c

	return CAN_MAILBOX_TRANSFER_OK;
  4016ea:	2000      	movs	r0, #0
}
  4016ec:	f85d 4b04 	ldr.w	r4, [sp], #4
  4016f0:	4770      	bx	lr
		p_can->CAN_MB[uc_index].CAN_MID = p_mailbox->ul_id;
  4016f2:	690c      	ldr	r4, [r1, #16]
  4016f4:	eb00 1243 	add.w	r2, r0, r3, lsl #5
  4016f8:	f8c2 4208 	str.w	r4, [r2, #520]	; 0x208
  4016fc:	e7e0      	b.n	4016c0 <can_mailbox_write+0x26>
		return CAN_MAILBOX_NOT_READY;
  4016fe:	2001      	movs	r0, #1
  401700:	4770      	bx	lr
	...

00401704 <can_reset_all_mailbox>:
 * \brief Reset the eight mailboxes.
 *
 * \param p_can Pointer to a CAN peripheral instance.
 */
void can_reset_all_mailbox(Can *p_can)
{
  401704:	b570      	push	{r4, r5, r6, lr}
  401706:	b088      	sub	sp, #32
  401708:	4606      	mov	r6, r0
	can_mb_conf_t mb_config_t;

	/* Set the mailbox object type parameter to disable the mailbox. */
	mb_config_t.uc_obj_type = CAN_MB_DISABLE_MODE;
  40170a:	2400      	movs	r4, #0
  40170c:	f88d 4004 	strb.w	r4, [sp, #4]

	for (uint8_t i = 0; i < CANMB_NUMBER; i++) {
		mb_config_t.ul_mb_idx = i;
		can_mailbox_init(p_can, &mb_config_t);
  401710:	4d04      	ldr	r5, [pc, #16]	; (401724 <can_reset_all_mailbox+0x20>)
		mb_config_t.ul_mb_idx = i;
  401712:	9400      	str	r4, [sp, #0]
		can_mailbox_init(p_can, &mb_config_t);
  401714:	4669      	mov	r1, sp
  401716:	4630      	mov	r0, r6
  401718:	47a8      	blx	r5
  40171a:	3401      	adds	r4, #1
	for (uint8_t i = 0; i < CANMB_NUMBER; i++) {
  40171c:	2c08      	cmp	r4, #8
  40171e:	d1f8      	bne.n	401712 <can_reset_all_mailbox+0xe>
	}
}
  401720:	b008      	add	sp, #32
  401722:	bd70      	pop	{r4, r5, r6, pc}
  401724:	00401619 	.word	0x00401619

00401728 <can_init>:
{
  401728:	b5f8      	push	{r3, r4, r5, r6, r7, lr}
	if (((ul_mck + (ul_baudrate * CAN_MAX_TQ_NUM * 1000 - 1)) /
  40172a:	f246 13a8 	movw	r3, #25000	; 0x61a8
  40172e:	fb03 f402 	mul.w	r4, r3, r2
  401732:	190b      	adds	r3, r1, r4
  401734:	3b01      	subs	r3, #1
  401736:	fbb3 f3f4 	udiv	r3, r3, r4
  40173a:	2b80      	cmp	r3, #128	; 0x80
  40173c:	d866      	bhi.n	40180c <can_init+0xe4>
	if ((ul_mck / 2)  < ul_baudrate * CAN_MIN_TQ_NUM * 1000) {
  40173e:	f44f 54fa 	mov.w	r4, #8000	; 0x1f40
  401742:	fb04 f402 	mul.w	r4, r4, r2
  401746:	ebb4 0f51 	cmp.w	r4, r1, lsr #1
  40174a:	d861      	bhi.n	401810 <can_init+0xe8>
  40174c:	f44f 737a 	mov.w	r3, #1000	; 0x3e8
  401750:	fb03 f202 	mul.w	r2, r3, r2
  401754:	2708      	movs	r7, #8
  401756:	f04f 36ff 	mov.w	r6, #4294967295
  40175a:	463b      	mov	r3, r7
  40175c:	e004      	b.n	401768 <can_init+0x40>
	for (uint8_t i = CAN_MIN_TQ_NUM; i <= CAN_MAX_TQ_NUM; i++) {
  40175e:	3301      	adds	r3, #1
  401760:	b2db      	uxtb	r3, r3
  401762:	4414      	add	r4, r2
  401764:	2b1a      	cmp	r3, #26
  401766:	d00c      	beq.n	401782 <can_init+0x5a>
		if ((ul_mck / (ul_baudrate * i * 1000)) <=
  401768:	fbb1 f5f4 	udiv	r5, r1, r4
  40176c:	2d80      	cmp	r5, #128	; 0x80
  40176e:	d8f6      	bhi.n	40175e <can_init+0x36>
			ul_cur_mod = ul_mck % (ul_baudrate * i * 1000);
  401770:	fb04 1515 	mls	r5, r4, r5, r1
			if (ul_cur_mod < ul_mod) {
  401774:	42b5      	cmp	r5, r6
  401776:	d2f2      	bcs.n	40175e <can_init+0x36>
				if (!ul_mod) {
  401778:	b115      	cbz	r5, 401780 <can_init+0x58>
				ul_mod = ul_cur_mod;
  40177a:	462e      	mov	r6, r5
				if (!ul_mod) {
  40177c:	461f      	mov	r7, r3
  40177e:	e7ee      	b.n	40175e <can_init+0x36>
  401780:	461f      	mov	r7, r3
	uc_prescale = ul_mck / (ul_baudrate * uc_tq * 1000);
  401782:	fb02 f207 	mul.w	r2, r2, r7
  401786:	fbb1 f1f2 	udiv	r1, r1, r2
	if (uc_prescale < 2) {
  40178a:	b2cb      	uxtb	r3, r1
  40178c:	2b01      	cmp	r3, #1
  40178e:	d941      	bls.n	401814 <can_init+0xec>
  401790:	4604      	mov	r4, r0
	p_bit_time = (can_bit_timing_t *)&can_bit_time[uc_tq - CAN_MIN_TQ_NUM];
  401792:	f1a7 0208 	sub.w	r2, r7, #8
	p_can->CAN_MR &= ~CAN_MR_CANEN;
  401796:	6803      	ldr	r3, [r0, #0]
  401798:	f023 0301 	bic.w	r3, r3, #1
  40179c:	6003      	str	r3, [r0, #0]
			CAN_BR_PHASE1(p_bit_time->uc_phase1 - 1) |
  40179e:	4d1e      	ldr	r5, [pc, #120]	; (401818 <can_init+0xf0>)
  4017a0:	0056      	lsls	r6, r2, #1
  4017a2:	18b7      	adds	r7, r6, r2
  4017a4:	eb05 0747 	add.w	r7, r5, r7, lsl #1
  4017a8:	78bb      	ldrb	r3, [r7, #2]
  4017aa:	3b01      	subs	r3, #1
  4017ac:	011b      	lsls	r3, r3, #4
  4017ae:	f003 0370 	and.w	r3, r3, #112	; 0x70
			CAN_BR_PROPAG(p_bit_time->uc_prog - 1) |
  4017b2:	7878      	ldrb	r0, [r7, #1]
  4017b4:	3801      	subs	r0, #1
  4017b6:	0200      	lsls	r0, r0, #8
  4017b8:	f400 60e0 	and.w	r0, r0, #1792	; 0x700
			CAN_BR_PHASE1(p_bit_time->uc_phase1 - 1) |
  4017bc:	4303      	orrs	r3, r0
	p_can->CAN_BR = CAN_BR_PHASE2(p_bit_time->uc_phase2 - 1) |
  4017be:	78f8      	ldrb	r0, [r7, #3]
  4017c0:	3801      	subs	r0, #1
  4017c2:	f000 0007 	and.w	r0, r0, #7
			CAN_BR_PHASE1(p_bit_time->uc_phase1 - 1) |
  4017c6:	4303      	orrs	r3, r0
			CAN_BR_SJW(p_bit_time->uc_sjw - 1) |
  4017c8:	793a      	ldrb	r2, [r7, #4]
  4017ca:	3a01      	subs	r2, #1
  4017cc:	0312      	lsls	r2, r2, #12
  4017ce:	f402 5240 	and.w	r2, r2, #12288	; 0x3000
			CAN_BR_PROPAG(p_bit_time->uc_prog - 1) |
  4017d2:	4313      	orrs	r3, r2
			CAN_BR_BRP(uc_prescale - 1);
  4017d4:	b2ca      	uxtb	r2, r1
  4017d6:	3a01      	subs	r2, #1
  4017d8:	0412      	lsls	r2, r2, #16
  4017da:	f402 02fe 	and.w	r2, r2, #8323072	; 0x7f0000
			CAN_BR_SJW(p_bit_time->uc_sjw - 1) |
  4017de:	4313      	orrs	r3, r2
	p_can->CAN_BR = CAN_BR_PHASE2(p_bit_time->uc_phase2 - 1) |
  4017e0:	6163      	str	r3, [r4, #20]
	can_reset_all_mailbox(p_can);
  4017e2:	4620      	mov	r0, r4
  4017e4:	4b0d      	ldr	r3, [pc, #52]	; (40181c <can_init+0xf4>)
  4017e6:	4798      	blx	r3
	p_can->CAN_MR |= CAN_MR_CANEN;
  4017e8:	6823      	ldr	r3, [r4, #0]
  4017ea:	f043 0301 	orr.w	r3, r3, #1
  4017ee:	6023      	str	r3, [r4, #0]
  4017f0:	2300      	movs	r3, #0
	while (!(ul_flag & CAN_SR_WAKEUP) && (ul_tick < CAN_TIMEOUT)) {
  4017f2:	490b      	ldr	r1, [pc, #44]	; (401820 <can_init+0xf8>)
	return (p_can->CAN_SR);
  4017f4:	6922      	ldr	r2, [r4, #16]
		ul_tick++;
  4017f6:	3301      	adds	r3, #1
	while (!(ul_flag & CAN_SR_WAKEUP) && (ul_tick < CAN_TIMEOUT)) {
  4017f8:	f412 1f00 	tst.w	r2, #2097152	; 0x200000
  4017fc:	d101      	bne.n	401802 <can_init+0xda>
  4017fe:	428b      	cmp	r3, r1
  401800:	d1f8      	bne.n	4017f4 <can_init+0xcc>
	if (CAN_TIMEOUT == ul_tick) {
  401802:	4807      	ldr	r0, [pc, #28]	; (401820 <can_init+0xf8>)
  401804:	1a18      	subs	r0, r3, r0
  401806:	bf18      	it	ne
  401808:	2001      	movne	r0, #1
  40180a:	bdf8      	pop	{r3, r4, r5, r6, r7, pc}
		return 0;
  40180c:	2000      	movs	r0, #0
  40180e:	bdf8      	pop	{r3, r4, r5, r6, r7, pc}
  401810:	2000      	movs	r0, #0
  401812:	bdf8      	pop	{r3, r4, r5, r6, r7, pc}
  401814:	2000      	movs	r0, #0
}
  401816:	bdf8      	pop	{r3, r4, r5, r6, r7, pc}
  401818:	00401ca4 	.word	0x00401ca4
  40181c:	00401705 	.word	0x00401705
  401820:	000186a0 	.word	0x000186a0

00401824 <pio_set_peripheral>:
		const uint32_t ul_mask)
{
	uint32_t ul_sr;

	/* Disable interrupts on the pin(s) */
	p_pio->PIO_IDR = ul_mask;
  401824:	6442      	str	r2, [r0, #68]	; 0x44

#if (SAM3S || SAM3N || SAM4S || SAM4E || SAM4N || SAM4C || SAMG || SAM4CP || SAM4CM || SAMV71 || SAMV70 || SAME70 || SAMS70)
	switch (ul_type) {
  401826:	f1b1 5fc0 	cmp.w	r1, #402653184	; 0x18000000
  40182a:	d03a      	beq.n	4018a2 <pio_set_peripheral+0x7e>
  40182c:	d813      	bhi.n	401856 <pio_set_peripheral+0x32>
  40182e:	f1b1 6f00 	cmp.w	r1, #134217728	; 0x8000000
  401832:	d025      	beq.n	401880 <pio_set_peripheral+0x5c>
  401834:	f1b1 5f80 	cmp.w	r1, #268435456	; 0x10000000
  401838:	d10a      	bne.n	401850 <pio_set_peripheral+0x2c>

		ul_sr = p_pio->PIO_ABCDSR[1];
		p_pio->PIO_ABCDSR[1] &= (~ul_mask & ul_sr);
		break;
	case PIO_PERIPH_B:
		ul_sr = p_pio->PIO_ABCDSR[0];
  40183a:	6f03      	ldr	r3, [r0, #112]	; 0x70
		p_pio->PIO_ABCDSR[0] = (ul_mask | ul_sr);
  40183c:	4313      	orrs	r3, r2
  40183e:	6703      	str	r3, [r0, #112]	; 0x70

		ul_sr = p_pio->PIO_ABCDSR[1];
  401840:	6f43      	ldr	r3, [r0, #116]	; 0x74
		p_pio->PIO_ABCDSR[1] &= (~ul_mask & ul_sr);
  401842:	6f41      	ldr	r1, [r0, #116]	; 0x74
  401844:	400b      	ands	r3, r1
  401846:	ea23 0302 	bic.w	r3, r3, r2
  40184a:	6743      	str	r3, [r0, #116]	; 0x74
#else
#error "Unsupported device"
#endif

	/* Remove the pins from under the control of PIO */
	p_pio->PIO_PDR = ul_mask;
  40184c:	6042      	str	r2, [r0, #4]
  40184e:	4770      	bx	lr
	switch (ul_type) {
  401850:	2900      	cmp	r1, #0
  401852:	d1fb      	bne.n	40184c <pio_set_peripheral+0x28>
  401854:	4770      	bx	lr
  401856:	f1b1 5f20 	cmp.w	r1, #671088640	; 0x28000000
  40185a:	d021      	beq.n	4018a0 <pio_set_peripheral+0x7c>
  40185c:	d809      	bhi.n	401872 <pio_set_peripheral+0x4e>
  40185e:	f1b1 5f00 	cmp.w	r1, #536870912	; 0x20000000
  401862:	d1f3      	bne.n	40184c <pio_set_peripheral+0x28>
		ul_sr = p_pio->PIO_ABCDSR[0];
  401864:	6f03      	ldr	r3, [r0, #112]	; 0x70
		p_pio->PIO_ABCDSR[0] = (ul_mask | ul_sr);
  401866:	4313      	orrs	r3, r2
  401868:	6703      	str	r3, [r0, #112]	; 0x70
		ul_sr = p_pio->PIO_ABCDSR[1];
  40186a:	6f43      	ldr	r3, [r0, #116]	; 0x74
		p_pio->PIO_ABCDSR[1] = (ul_mask | ul_sr);
  40186c:	4313      	orrs	r3, r2
  40186e:	6743      	str	r3, [r0, #116]	; 0x74
		break;
  401870:	e7ec      	b.n	40184c <pio_set_peripheral+0x28>
	switch (ul_type) {
  401872:	f1b1 5f40 	cmp.w	r1, #805306368	; 0x30000000
  401876:	d013      	beq.n	4018a0 <pio_set_peripheral+0x7c>
  401878:	f1b1 5f60 	cmp.w	r1, #939524096	; 0x38000000
  40187c:	d010      	beq.n	4018a0 <pio_set_peripheral+0x7c>
  40187e:	e7e5      	b.n	40184c <pio_set_peripheral+0x28>
{
  401880:	b410      	push	{r4}
		ul_sr = p_pio->PIO_ABCDSR[0];
  401882:	6f01      	ldr	r1, [r0, #112]	; 0x70
		p_pio->PIO_ABCDSR[0] &= (~ul_mask & ul_sr);
  401884:	6f04      	ldr	r4, [r0, #112]	; 0x70
  401886:	43d3      	mvns	r3, r2
  401888:	4021      	ands	r1, r4
  40188a:	461c      	mov	r4, r3
  40188c:	4019      	ands	r1, r3
  40188e:	6701      	str	r1, [r0, #112]	; 0x70
		ul_sr = p_pio->PIO_ABCDSR[1];
  401890:	6f43      	ldr	r3, [r0, #116]	; 0x74
		p_pio->PIO_ABCDSR[1] &= (~ul_mask & ul_sr);
  401892:	6f41      	ldr	r1, [r0, #116]	; 0x74
  401894:	400b      	ands	r3, r1
  401896:	4023      	ands	r3, r4
  401898:	6743      	str	r3, [r0, #116]	; 0x74
	p_pio->PIO_PDR = ul_mask;
  40189a:	6042      	str	r2, [r0, #4]
}
  40189c:	f85d 4b04 	ldr.w	r4, [sp], #4
  4018a0:	4770      	bx	lr
		ul_sr = p_pio->PIO_ABCDSR[0];
  4018a2:	6f03      	ldr	r3, [r0, #112]	; 0x70
		p_pio->PIO_ABCDSR[0] &= (~ul_mask & ul_sr);
  4018a4:	6f01      	ldr	r1, [r0, #112]	; 0x70
  4018a6:	400b      	ands	r3, r1
  4018a8:	ea23 0302 	bic.w	r3, r3, r2
  4018ac:	6703      	str	r3, [r0, #112]	; 0x70
		ul_sr = p_pio->PIO_ABCDSR[1];
  4018ae:	6f43      	ldr	r3, [r0, #116]	; 0x74
		p_pio->PIO_ABCDSR[1] = (ul_mask | ul_sr);
  4018b0:	4313      	orrs	r3, r2
  4018b2:	6743      	str	r3, [r0, #116]	; 0x74
		break;
  4018b4:	e7ca      	b.n	40184c <pio_set_peripheral+0x28>

004018b6 <pio_get_interrupt_status>:
 *
 * \return The interrupt status value.
 */
uint32_t pio_get_interrupt_status(const Pio *p_pio)
{
	return p_pio->PIO_ISR;
  4018b6:	6cc0      	ldr	r0, [r0, #76]	; 0x4c
}
  4018b8:	4770      	bx	lr

004018ba <pio_get_interrupt_mask>:
 *
 * \return The interrupt mask value.
 */
uint32_t pio_get_interrupt_mask(const Pio *p_pio)
{
	return p_pio->PIO_IMR;
  4018ba:	6c80      	ldr	r0, [r0, #72]	; 0x48
}
  4018bc:	4770      	bx	lr
	...

004018c0 <pmc_switch_mck_to_pllack>:
 */
uint32_t pmc_switch_mck_to_pllack(uint32_t ul_pres)
{
	uint32_t ul_timeout;

	PMC->PMC_MCKR = (PMC->PMC_MCKR & (~PMC_MCKR_PRES_Msk)) | ul_pres;
  4018c0:	4a17      	ldr	r2, [pc, #92]	; (401920 <pmc_switch_mck_to_pllack+0x60>)
  4018c2:	6b13      	ldr	r3, [r2, #48]	; 0x30
  4018c4:	f023 0370 	bic.w	r3, r3, #112	; 0x70
  4018c8:	4318      	orrs	r0, r3
  4018ca:	6310      	str	r0, [r2, #48]	; 0x30
	for (ul_timeout = PMC_TIMEOUT; !(PMC->PMC_SR & PMC_SR_MCKRDY);
  4018cc:	6e93      	ldr	r3, [r2, #104]	; 0x68
  4018ce:	f013 0f08 	tst.w	r3, #8
  4018d2:	d10a      	bne.n	4018ea <pmc_switch_mck_to_pllack+0x2a>
  4018d4:	f44f 6300 	mov.w	r3, #2048	; 0x800
  4018d8:	4911      	ldr	r1, [pc, #68]	; (401920 <pmc_switch_mck_to_pllack+0x60>)
  4018da:	6e8a      	ldr	r2, [r1, #104]	; 0x68
  4018dc:	f012 0f08 	tst.w	r2, #8
  4018e0:	d103      	bne.n	4018ea <pmc_switch_mck_to_pllack+0x2a>
			--ul_timeout) {
		if (ul_timeout == 0) {
  4018e2:	3b01      	subs	r3, #1
  4018e4:	d1f9      	bne.n	4018da <pmc_switch_mck_to_pllack+0x1a>
			return 1;
  4018e6:	2001      	movs	r0, #1
  4018e8:	4770      	bx	lr
		}
	}

	PMC->PMC_MCKR = (PMC->PMC_MCKR & (~PMC_MCKR_CSS_Msk)) |
  4018ea:	4a0d      	ldr	r2, [pc, #52]	; (401920 <pmc_switch_mck_to_pllack+0x60>)
  4018ec:	6b13      	ldr	r3, [r2, #48]	; 0x30
  4018ee:	f023 0303 	bic.w	r3, r3, #3
  4018f2:	f043 0302 	orr.w	r3, r3, #2
  4018f6:	6313      	str	r3, [r2, #48]	; 0x30
			PMC_MCKR_CSS_PLLA_CLK;

	for (ul_timeout = PMC_TIMEOUT; !(PMC->PMC_SR & PMC_SR_MCKRDY);
  4018f8:	6e93      	ldr	r3, [r2, #104]	; 0x68
  4018fa:	f013 0f08 	tst.w	r3, #8
  4018fe:	d10a      	bne.n	401916 <pmc_switch_mck_to_pllack+0x56>
  401900:	f44f 6300 	mov.w	r3, #2048	; 0x800
  401904:	4906      	ldr	r1, [pc, #24]	; (401920 <pmc_switch_mck_to_pllack+0x60>)
  401906:	6e8a      	ldr	r2, [r1, #104]	; 0x68
  401908:	f012 0f08 	tst.w	r2, #8
  40190c:	d105      	bne.n	40191a <pmc_switch_mck_to_pllack+0x5a>
			--ul_timeout) {
		if (ul_timeout == 0) {
  40190e:	3b01      	subs	r3, #1
  401910:	d1f9      	bne.n	401906 <pmc_switch_mck_to_pllack+0x46>
			return 1;
  401912:	2001      	movs	r0, #1
		}
	}

	return 0;
}
  401914:	4770      	bx	lr
	return 0;
  401916:	2000      	movs	r0, #0
  401918:	4770      	bx	lr
  40191a:	2000      	movs	r0, #0
  40191c:	4770      	bx	lr
  40191e:	bf00      	nop
  401920:	400e0400 	.word	0x400e0400

00401924 <pmc_switch_mainck_to_xtal>:
 */
void pmc_switch_mainck_to_xtal(uint32_t ul_bypass,
		uint32_t ul_xtal_startup_time)
{
	/* Enable Main Xtal oscillator */
	if (ul_bypass) {
  401924:	b9c8      	cbnz	r0, 40195a <pmc_switch_mainck_to_xtal+0x36>
		PMC->CKGR_MOR = (PMC->CKGR_MOR & ~CKGR_MOR_MOSCXTEN) |
				CKGR_MOR_KEY_PASSWD | CKGR_MOR_MOSCXTBY |
				CKGR_MOR_MOSCSEL;
	} else {
		PMC->CKGR_MOR = (PMC->CKGR_MOR & ~CKGR_MOR_MOSCXTBY) |
  401926:	4a11      	ldr	r2, [pc, #68]	; (40196c <pmc_switch_mainck_to_xtal+0x48>)
  401928:	6a13      	ldr	r3, [r2, #32]
				CKGR_MOR_KEY_PASSWD | CKGR_MOR_MOSCXTEN |
				CKGR_MOR_MOSCXTST(ul_xtal_startup_time);
  40192a:	0209      	lsls	r1, r1, #8
  40192c:	b289      	uxth	r1, r1
				CKGR_MOR_KEY_PASSWD | CKGR_MOR_MOSCXTEN |
  40192e:	f423 135c 	bic.w	r3, r3, #3604480	; 0x370000
  401932:	f023 0303 	bic.w	r3, r3, #3
  401936:	f443 135c 	orr.w	r3, r3, #3604480	; 0x370000
  40193a:	f043 0301 	orr.w	r3, r3, #1
  40193e:	430b      	orrs	r3, r1
		PMC->CKGR_MOR = (PMC->CKGR_MOR & ~CKGR_MOR_MOSCXTBY) |
  401940:	6213      	str	r3, [r2, #32]
		/* Wait the Xtal to stabilize */
		while (!(PMC->PMC_SR & PMC_SR_MOSCXTS));
  401942:	6e93      	ldr	r3, [r2, #104]	; 0x68
  401944:	f013 0f01 	tst.w	r3, #1
  401948:	d0fb      	beq.n	401942 <pmc_switch_mainck_to_xtal+0x1e>

		PMC->CKGR_MOR |= CKGR_MOR_KEY_PASSWD | CKGR_MOR_MOSCSEL;
  40194a:	4a08      	ldr	r2, [pc, #32]	; (40196c <pmc_switch_mainck_to_xtal+0x48>)
  40194c:	6a13      	ldr	r3, [r2, #32]
  40194e:	f043 739b 	orr.w	r3, r3, #20316160	; 0x1360000
  401952:	f443 3380 	orr.w	r3, r3, #65536	; 0x10000
  401956:	6213      	str	r3, [r2, #32]
  401958:	4770      	bx	lr
		PMC->CKGR_MOR = (PMC->CKGR_MOR & ~CKGR_MOR_MOSCXTEN) |
  40195a:	4904      	ldr	r1, [pc, #16]	; (40196c <pmc_switch_mainck_to_xtal+0x48>)
  40195c:	6a0b      	ldr	r3, [r1, #32]
				CKGR_MOR_KEY_PASSWD | CKGR_MOR_MOSCXTBY |
  40195e:	4a04      	ldr	r2, [pc, #16]	; (401970 <pmc_switch_mainck_to_xtal+0x4c>)
  401960:	401a      	ands	r2, r3
  401962:	4b04      	ldr	r3, [pc, #16]	; (401974 <pmc_switch_mainck_to_xtal+0x50>)
  401964:	4313      	orrs	r3, r2
		PMC->CKGR_MOR = (PMC->CKGR_MOR & ~CKGR_MOR_MOSCXTEN) |
  401966:	620b      	str	r3, [r1, #32]
  401968:	4770      	bx	lr
  40196a:	bf00      	nop
  40196c:	400e0400 	.word	0x400e0400
  401970:	fec8fffc 	.word	0xfec8fffc
  401974:	01370002 	.word	0x01370002

00401978 <pmc_osc_is_ready_mainck>:
 * \retval 1 Xtal is ready.
 * \retval 0 Xtal is not ready.
 */
uint32_t pmc_osc_is_ready_mainck(void)
{
	return PMC->PMC_SR & PMC_SR_MOSCSELS;
  401978:	4b02      	ldr	r3, [pc, #8]	; (401984 <pmc_osc_is_ready_mainck+0xc>)
  40197a:	6e98      	ldr	r0, [r3, #104]	; 0x68
}
  40197c:	f400 3080 	and.w	r0, r0, #65536	; 0x10000
  401980:	4770      	bx	lr
  401982:	bf00      	nop
  401984:	400e0400 	.word	0x400e0400

00401988 <pmc_disable_pllack>:
void pmc_disable_pllack(void)
{
#if (SAM4C || SAM4CM || SAM4CP || SAMG)
	PMC->CKGR_PLLAR = CKGR_PLLAR_MULA(0);
#else
	PMC->CKGR_PLLAR = CKGR_PLLAR_ONE | CKGR_PLLAR_MULA(0);
  401988:	f04f 5200 	mov.w	r2, #536870912	; 0x20000000
  40198c:	4b01      	ldr	r3, [pc, #4]	; (401994 <pmc_disable_pllack+0xc>)
  40198e:	629a      	str	r2, [r3, #40]	; 0x28
  401990:	4770      	bx	lr
  401992:	bf00      	nop
  401994:	400e0400 	.word	0x400e0400

00401998 <pmc_is_locked_pllack>:
 * \retval 0 Not locked.
 * \retval 1 Locked.
 */
uint32_t pmc_is_locked_pllack(void)
{
	return (PMC->PMC_SR & PMC_SR_LOCKA);
  401998:	4b02      	ldr	r3, [pc, #8]	; (4019a4 <pmc_is_locked_pllack+0xc>)
  40199a:	6e98      	ldr	r0, [r3, #104]	; 0x68
}
  40199c:	f000 0002 	and.w	r0, r0, #2
  4019a0:	4770      	bx	lr
  4019a2:	bf00      	nop
  4019a4:	400e0400 	.word	0x400e0400

004019a8 <pmc_enable_periph_clk>:
	PMC->PMC_PCR = ul_id & 0x7F;
	pcr = PMC->PMC_PCR | PMC_PCR_EN | PMC_PCR_CMD;
	PMC->PMC_PCR = pcr;
	return 0;
#else
	if (ul_id > MAX_PERIPH_ID) {
  4019a8:	282f      	cmp	r0, #47	; 0x2f
  4019aa:	d81e      	bhi.n	4019ea <pmc_enable_periph_clk+0x42>
		return 1;
	}

	if (ul_id < 32) {
  4019ac:	281f      	cmp	r0, #31
  4019ae:	d80c      	bhi.n	4019ca <pmc_enable_periph_clk+0x22>
		if ((PMC->PMC_PCSR0 & (1u << ul_id)) != (1u << ul_id)) {
  4019b0:	4b11      	ldr	r3, [pc, #68]	; (4019f8 <pmc_enable_periph_clk+0x50>)
  4019b2:	699a      	ldr	r2, [r3, #24]
  4019b4:	2301      	movs	r3, #1
  4019b6:	4083      	lsls	r3, r0
  4019b8:	4393      	bics	r3, r2
  4019ba:	d018      	beq.n	4019ee <pmc_enable_periph_clk+0x46>
			PMC->PMC_PCER0 = 1 << ul_id;
  4019bc:	2301      	movs	r3, #1
  4019be:	fa03 f000 	lsl.w	r0, r3, r0
  4019c2:	4b0d      	ldr	r3, [pc, #52]	; (4019f8 <pmc_enable_periph_clk+0x50>)
  4019c4:	6118      	str	r0, [r3, #16]
			PMC->PMC_PCER1 = 1 << ul_id;
		}
#endif
	}

	return 0;
  4019c6:	2000      	movs	r0, #0
  4019c8:	4770      	bx	lr
		ul_id -= 32;
  4019ca:	3820      	subs	r0, #32
		if ((PMC->PMC_PCSR1 & (1u << ul_id)) != (1u << ul_id)) {
  4019cc:	4b0a      	ldr	r3, [pc, #40]	; (4019f8 <pmc_enable_periph_clk+0x50>)
  4019ce:	f8d3 2108 	ldr.w	r2, [r3, #264]	; 0x108
  4019d2:	2301      	movs	r3, #1
  4019d4:	4083      	lsls	r3, r0
  4019d6:	4393      	bics	r3, r2
  4019d8:	d00b      	beq.n	4019f2 <pmc_enable_periph_clk+0x4a>
			PMC->PMC_PCER1 = 1 << ul_id;
  4019da:	2301      	movs	r3, #1
  4019dc:	fa03 f000 	lsl.w	r0, r3, r0
  4019e0:	4b05      	ldr	r3, [pc, #20]	; (4019f8 <pmc_enable_periph_clk+0x50>)
  4019e2:	f8c3 0100 	str.w	r0, [r3, #256]	; 0x100
	return 0;
  4019e6:	2000      	movs	r0, #0
  4019e8:	4770      	bx	lr
		return 1;
  4019ea:	2001      	movs	r0, #1
  4019ec:	4770      	bx	lr
	return 0;
  4019ee:	2000      	movs	r0, #0
  4019f0:	4770      	bx	lr
  4019f2:	2000      	movs	r0, #0
#endif /* defined(REG_PMC_PCR) && !SAMG55 */
}
  4019f4:	4770      	bx	lr
  4019f6:	bf00      	nop
  4019f8:	400e0400 	.word	0x400e0400

004019fc <__libc_init_array>:
  4019fc:	b570      	push	{r4, r5, r6, lr}
  4019fe:	4e0f      	ldr	r6, [pc, #60]	; (401a3c <__libc_init_array+0x40>)
  401a00:	4d0f      	ldr	r5, [pc, #60]	; (401a40 <__libc_init_array+0x44>)
  401a02:	1b76      	subs	r6, r6, r5
  401a04:	10b6      	asrs	r6, r6, #2
  401a06:	bf18      	it	ne
  401a08:	2400      	movne	r4, #0
  401a0a:	d005      	beq.n	401a18 <__libc_init_array+0x1c>
  401a0c:	3401      	adds	r4, #1
  401a0e:	f855 3b04 	ldr.w	r3, [r5], #4
  401a12:	4798      	blx	r3
  401a14:	42a6      	cmp	r6, r4
  401a16:	d1f9      	bne.n	401a0c <__libc_init_array+0x10>
  401a18:	4e0a      	ldr	r6, [pc, #40]	; (401a44 <__libc_init_array+0x48>)
  401a1a:	4d0b      	ldr	r5, [pc, #44]	; (401a48 <__libc_init_array+0x4c>)
  401a1c:	1b76      	subs	r6, r6, r5
  401a1e:	f000 f979 	bl	401d14 <_init>
  401a22:	10b6      	asrs	r6, r6, #2
  401a24:	bf18      	it	ne
  401a26:	2400      	movne	r4, #0
  401a28:	d006      	beq.n	401a38 <__libc_init_array+0x3c>
  401a2a:	3401      	adds	r4, #1
  401a2c:	f855 3b04 	ldr.w	r3, [r5], #4
  401a30:	4798      	blx	r3
  401a32:	42a6      	cmp	r6, r4
  401a34:	d1f9      	bne.n	401a2a <__libc_init_array+0x2e>
  401a36:	bd70      	pop	{r4, r5, r6, pc}
  401a38:	bd70      	pop	{r4, r5, r6, pc}
  401a3a:	bf00      	nop
  401a3c:	00401d20 	.word	0x00401d20
  401a40:	00401d20 	.word	0x00401d20
  401a44:	00401d28 	.word	0x00401d28
  401a48:	00401d20 	.word	0x00401d20

00401a4c <memset>:
  401a4c:	b470      	push	{r4, r5, r6}
  401a4e:	0786      	lsls	r6, r0, #30
  401a50:	d046      	beq.n	401ae0 <memset+0x94>
  401a52:	1e54      	subs	r4, r2, #1
  401a54:	2a00      	cmp	r2, #0
  401a56:	d041      	beq.n	401adc <memset+0x90>
  401a58:	b2ca      	uxtb	r2, r1
  401a5a:	4603      	mov	r3, r0
  401a5c:	e002      	b.n	401a64 <memset+0x18>
  401a5e:	f114 34ff 	adds.w	r4, r4, #4294967295
  401a62:	d33b      	bcc.n	401adc <memset+0x90>
  401a64:	f803 2b01 	strb.w	r2, [r3], #1
  401a68:	079d      	lsls	r5, r3, #30
  401a6a:	d1f8      	bne.n	401a5e <memset+0x12>
  401a6c:	2c03      	cmp	r4, #3
  401a6e:	d92e      	bls.n	401ace <memset+0x82>
  401a70:	b2cd      	uxtb	r5, r1
  401a72:	ea45 2505 	orr.w	r5, r5, r5, lsl #8
  401a76:	2c0f      	cmp	r4, #15
  401a78:	ea45 4505 	orr.w	r5, r5, r5, lsl #16
  401a7c:	d919      	bls.n	401ab2 <memset+0x66>
  401a7e:	f103 0210 	add.w	r2, r3, #16
  401a82:	4626      	mov	r6, r4
  401a84:	3e10      	subs	r6, #16
  401a86:	2e0f      	cmp	r6, #15
  401a88:	f842 5c10 	str.w	r5, [r2, #-16]
  401a8c:	f842 5c0c 	str.w	r5, [r2, #-12]
  401a90:	f842 5c08 	str.w	r5, [r2, #-8]
  401a94:	f842 5c04 	str.w	r5, [r2, #-4]
  401a98:	f102 0210 	add.w	r2, r2, #16
  401a9c:	d8f2      	bhi.n	401a84 <memset+0x38>
  401a9e:	f1a4 0210 	sub.w	r2, r4, #16
  401aa2:	f022 020f 	bic.w	r2, r2, #15
  401aa6:	f004 040f 	and.w	r4, r4, #15
  401aaa:	3210      	adds	r2, #16
  401aac:	2c03      	cmp	r4, #3
  401aae:	4413      	add	r3, r2
  401ab0:	d90d      	bls.n	401ace <memset+0x82>
  401ab2:	461e      	mov	r6, r3
  401ab4:	4622      	mov	r2, r4
  401ab6:	3a04      	subs	r2, #4
  401ab8:	2a03      	cmp	r2, #3
  401aba:	f846 5b04 	str.w	r5, [r6], #4
  401abe:	d8fa      	bhi.n	401ab6 <memset+0x6a>
  401ac0:	1f22      	subs	r2, r4, #4
  401ac2:	f022 0203 	bic.w	r2, r2, #3
  401ac6:	3204      	adds	r2, #4
  401ac8:	4413      	add	r3, r2
  401aca:	f004 0403 	and.w	r4, r4, #3
  401ace:	b12c      	cbz	r4, 401adc <memset+0x90>
  401ad0:	b2c9      	uxtb	r1, r1
  401ad2:	441c      	add	r4, r3
  401ad4:	f803 1b01 	strb.w	r1, [r3], #1
  401ad8:	429c      	cmp	r4, r3
  401ada:	d1fb      	bne.n	401ad4 <memset+0x88>
  401adc:	bc70      	pop	{r4, r5, r6}
  401ade:	4770      	bx	lr
  401ae0:	4614      	mov	r4, r2
  401ae2:	4603      	mov	r3, r0
  401ae4:	e7c2      	b.n	401a6c <memset+0x20>
  401ae6:	bf00      	nop

00401ae8 <register_fini>:
  401ae8:	4b02      	ldr	r3, [pc, #8]	; (401af4 <register_fini+0xc>)
  401aea:	b113      	cbz	r3, 401af2 <register_fini+0xa>
  401aec:	4802      	ldr	r0, [pc, #8]	; (401af8 <register_fini+0x10>)
  401aee:	f000 b805 	b.w	401afc <atexit>
  401af2:	4770      	bx	lr
  401af4:	00000000 	.word	0x00000000
  401af8:	00401b09 	.word	0x00401b09

00401afc <atexit>:
  401afc:	2300      	movs	r3, #0
  401afe:	4601      	mov	r1, r0
  401b00:	461a      	mov	r2, r3
  401b02:	4618      	mov	r0, r3
  401b04:	f000 b81e 	b.w	401b44 <__register_exitproc>

00401b08 <__libc_fini_array>:
  401b08:	b538      	push	{r3, r4, r5, lr}
  401b0a:	4c0a      	ldr	r4, [pc, #40]	; (401b34 <__libc_fini_array+0x2c>)
  401b0c:	4d0a      	ldr	r5, [pc, #40]	; (401b38 <__libc_fini_array+0x30>)
  401b0e:	1b64      	subs	r4, r4, r5
  401b10:	10a4      	asrs	r4, r4, #2
  401b12:	d00a      	beq.n	401b2a <__libc_fini_array+0x22>
  401b14:	f104 4380 	add.w	r3, r4, #1073741824	; 0x40000000
  401b18:	3b01      	subs	r3, #1
  401b1a:	eb05 0583 	add.w	r5, r5, r3, lsl #2
  401b1e:	3c01      	subs	r4, #1
  401b20:	f855 3904 	ldr.w	r3, [r5], #-4
  401b24:	4798      	blx	r3
  401b26:	2c00      	cmp	r4, #0
  401b28:	d1f9      	bne.n	401b1e <__libc_fini_array+0x16>
  401b2a:	e8bd 4038 	ldmia.w	sp!, {r3, r4, r5, lr}
  401b2e:	f000 b8fb 	b.w	401d28 <_fini>
  401b32:	bf00      	nop
  401b34:	00401d38 	.word	0x00401d38
  401b38:	00401d34 	.word	0x00401d34

00401b3c <__retarget_lock_acquire_recursive>:
  401b3c:	4770      	bx	lr
  401b3e:	bf00      	nop

00401b40 <__retarget_lock_release_recursive>:
  401b40:	4770      	bx	lr
  401b42:	bf00      	nop

00401b44 <__register_exitproc>:
  401b44:	e92d 43f8 	stmdb	sp!, {r3, r4, r5, r6, r7, r8, r9, lr}
  401b48:	4d2c      	ldr	r5, [pc, #176]	; (401bfc <__register_exitproc+0xb8>)
  401b4a:	4606      	mov	r6, r0
  401b4c:	6828      	ldr	r0, [r5, #0]
  401b4e:	4698      	mov	r8, r3
  401b50:	460f      	mov	r7, r1
  401b52:	4691      	mov	r9, r2
  401b54:	f7ff fff2 	bl	401b3c <__retarget_lock_acquire_recursive>
  401b58:	4b29      	ldr	r3, [pc, #164]	; (401c00 <__register_exitproc+0xbc>)
  401b5a:	681c      	ldr	r4, [r3, #0]
  401b5c:	f8d4 3148 	ldr.w	r3, [r4, #328]	; 0x148
  401b60:	2b00      	cmp	r3, #0
  401b62:	d03e      	beq.n	401be2 <__register_exitproc+0x9e>
  401b64:	685a      	ldr	r2, [r3, #4]
  401b66:	2a1f      	cmp	r2, #31
  401b68:	dc1c      	bgt.n	401ba4 <__register_exitproc+0x60>
  401b6a:	f102 0e01 	add.w	lr, r2, #1
  401b6e:	b176      	cbz	r6, 401b8e <__register_exitproc+0x4a>
  401b70:	eb03 0182 	add.w	r1, r3, r2, lsl #2
  401b74:	2401      	movs	r4, #1
  401b76:	f8c1 9088 	str.w	r9, [r1, #136]	; 0x88
  401b7a:	f8d3 0188 	ldr.w	r0, [r3, #392]	; 0x188
  401b7e:	4094      	lsls	r4, r2
  401b80:	4320      	orrs	r0, r4
  401b82:	2e02      	cmp	r6, #2
  401b84:	f8c3 0188 	str.w	r0, [r3, #392]	; 0x188
  401b88:	f8c1 8108 	str.w	r8, [r1, #264]	; 0x108
  401b8c:	d023      	beq.n	401bd6 <__register_exitproc+0x92>
  401b8e:	3202      	adds	r2, #2
  401b90:	f8c3 e004 	str.w	lr, [r3, #4]
  401b94:	6828      	ldr	r0, [r5, #0]
  401b96:	f843 7022 	str.w	r7, [r3, r2, lsl #2]
  401b9a:	f7ff ffd1 	bl	401b40 <__retarget_lock_release_recursive>
  401b9e:	2000      	movs	r0, #0
  401ba0:	e8bd 83f8 	ldmia.w	sp!, {r3, r4, r5, r6, r7, r8, r9, pc}
  401ba4:	4b17      	ldr	r3, [pc, #92]	; (401c04 <__register_exitproc+0xc0>)
  401ba6:	b30b      	cbz	r3, 401bec <__register_exitproc+0xa8>
  401ba8:	f44f 70c8 	mov.w	r0, #400	; 0x190
  401bac:	f3af 8000 	nop.w
  401bb0:	4603      	mov	r3, r0
  401bb2:	b1d8      	cbz	r0, 401bec <__register_exitproc+0xa8>
  401bb4:	f8d4 2148 	ldr.w	r2, [r4, #328]	; 0x148
  401bb8:	6002      	str	r2, [r0, #0]
  401bba:	2100      	movs	r1, #0
  401bbc:	6041      	str	r1, [r0, #4]
  401bbe:	460a      	mov	r2, r1
  401bc0:	f8c4 0148 	str.w	r0, [r4, #328]	; 0x148
  401bc4:	f04f 0e01 	mov.w	lr, #1
  401bc8:	f8c0 1188 	str.w	r1, [r0, #392]	; 0x188
  401bcc:	f8c0 118c 	str.w	r1, [r0, #396]	; 0x18c
  401bd0:	2e00      	cmp	r6, #0
  401bd2:	d0dc      	beq.n	401b8e <__register_exitproc+0x4a>
  401bd4:	e7cc      	b.n	401b70 <__register_exitproc+0x2c>
  401bd6:	f8d3 118c 	ldr.w	r1, [r3, #396]	; 0x18c
  401bda:	430c      	orrs	r4, r1
  401bdc:	f8c3 418c 	str.w	r4, [r3, #396]	; 0x18c
  401be0:	e7d5      	b.n	401b8e <__register_exitproc+0x4a>
  401be2:	f504 73a6 	add.w	r3, r4, #332	; 0x14c
  401be6:	f8c4 3148 	str.w	r3, [r4, #328]	; 0x148
  401bea:	e7bb      	b.n	401b64 <__register_exitproc+0x20>
  401bec:	6828      	ldr	r0, [r5, #0]
  401bee:	f7ff ffa7 	bl	401b40 <__retarget_lock_release_recursive>
  401bf2:	f04f 30ff 	mov.w	r0, #4294967295
  401bf6:	e8bd 83f8 	ldmia.w	sp!, {r3, r4, r5, r6, r7, r8, r9, pc}
  401bfa:	bf00      	nop
  401bfc:	20000430 	.word	0x20000430
  401c00:	00401d10 	.word	0x00401d10
  401c04:	00000000 	.word	0x00000000

00401c08 <mmc_trans_multipliers>:
  401c08:	00000000 0000000a 0000000c 0000000d     ................
  401c18:	0000000f 00000014 0000001a 0000001e     ................
  401c28:	00000023 00000028 0000002d 00000034     #...(...-...4...
  401c38:	00000037 0000003c 00000046 00000050     7...<...F...P...

00401c48 <sd_mmc_trans_units>:
  401c48:	0000000a 00000064 000003e8 00002710     ....d........'..
	...

00401c64 <sd_trans_multipliers>:
  401c64:	00000000 0000000a 0000000c 0000000d     ................
  401c74:	0000000f 00000014 00000019 0000001e     ................
  401c84:	00000023 00000028 0000002d 00000032     #...(...-...2...
  401c94:	00000037 0000003c 00000046 00000050     7...<...F...P...

00401ca4 <can_bit_time>:
  401ca4:	02020308 02094b03 43020303 0303030a     .....K.....C....
  401cb4:	040b4603 48040303 0404030c 040d4304     .F.....H.....C..
  401cc4:	4d040404 0504040e 040f4004 43040505     ...M.....@.....C
  401cd4:	05050510 06114504 47040505 06060512     .....E.....G....
  401ce4:	06134304 44040606 06060714 08154604     .C.....D.....F..
  401cf4:	47040606 07070716 08174404 46040708     ...G.....D.....F
  401d04:	08080718 08194304 44040808              .....C.....D

00401d10 <_global_impure_ptr>:
  401d10:	20000008                                ... 

00401d14 <_init>:
  401d14:	b5f8      	push	{r3, r4, r5, r6, r7, lr}
  401d16:	bf00      	nop
  401d18:	bcf8      	pop	{r3, r4, r5, r6, r7}
  401d1a:	bc08      	pop	{r3}
  401d1c:	469e      	mov	lr, r3
  401d1e:	4770      	bx	lr

00401d20 <__init_array_start>:
  401d20:	00401ae9 	.word	0x00401ae9

00401d24 <__frame_dummy_init_array_entry>:
  401d24:	0040011d                                ..@.

00401d28 <_fini>:
  401d28:	b5f8      	push	{r3, r4, r5, r6, r7, lr}
  401d2a:	bf00      	nop
  401d2c:	bcf8      	pop	{r3, r4, r5, r6, r7}
  401d2e:	bc08      	pop	{r3}
  401d30:	469e      	mov	lr, r3
  401d32:	4770      	bx	lr

00401d34 <__fini_array_start>:
  401d34:	004000f9 	.word	0x004000f9
